Certificate:
    Data:
        Version: 3 (0x2)
        Serial Number: 14434811929120621117 (0xc852c0f87ace423d)
    Signature Algorithm: sha256WithRSAEncryption
        Issuer: CN=DA riedom13
        Validity
            Not Before: Jan 26 10:38:25 2018 GMT
            Not After : Jan 26 10:38:25 2019 GMT
        Subject: CN=Server-riedom13
        Subject Public Key Info:
            Public Key Algorithm: rsaEncryption
                Public-Key: (2048 bit)
                Modulus:
                    00:a8:a3:e0:e7:33:95:c4:43:13:be:9d:3b:a9:f4:
                    d9:d0:67:12:ef:30:c7:d2:86:5d:10:fe:ed:87:70:
                    a4:d6:62:9e:89:b3:9d:ed:45:14:35:99:54:09:4c:
                    f7:13:74:db:d5:ff:d1:20:83:cd:b9:eb:9f:1d:53:
                    38:9c:80:c9:cb:98:dc:90:01:bb:1f:60:be:7f:37:
                    ce:6f:17:cb:70:e2:8a:3b:29:8e:7b:d0:63:73:28:
                    05:bf:93:0b:66:53:7c:8c:3d:b7:96:18:4f:f2:81:
                    7a:24:72:55:a0:32:d6:f3:70:8e:4d:a8:73:18:2f:
                    da:d5:c8:40:fe:9f:61:65:be:52:6c:c3:be:10:78:
                    a3:e0:f1:ca:2d:64:d5:b5:0e:bf:2a:21:4e:53:1f:
                    65:f0:65:8f:aa:56:c3:30:e0:94:c4:48:df:98:85:
                    69:e6:d3:b0:ea:ea:32:e0:3f:a6:38:aa:11:8f:09:
                    1b:4d:b5:91:4b:4e:09:a4:f6:27:fa:77:a5:8c:24:
                    ce:9a:89:c4:e5:20:1c:9d:6b:88:17:b9:5f:5f:ef:
                    f7:07:c0:8b:23:65:08:42:83:50:ff:99:27:3a:73:
                    5f:bc:9c:c2:11:c5:b9:de:af:9d:a4:2e:61:91:f1:
                    88:2e:58:01:9a:69:e6:57:24:21:34:66:d6:cc:d0:
                    e2:0b
                Exponent: 65537 (0x10001)
        X509v3 extensions:
            X509v3 Basic Constraints: 
                CA:FALSE
            Netscape Comment: 
                OpenSSL Generated Certificate
            X509v3 Subject Key Identifier: 
                BC:F4:52:5B:EC:55:B5:60:AE:22:6E:F0:01:9C:F6:0F:6E:4D:DF:EA
            X509v3 Authority Key Identifier: 
                keyid:56:6A:BE:3E:59:87:64:1D:91:40:35:3E:EF:F5:10:D7:54:46:84:0C

    Signature Algorithm: sha256WithRSAEncryption
         88:cc:de:66:6f:8d:af:dd:94:39:b1:1e:85:ed:92:68:35:12:
         50:4d:cd:74:ed:7e:88:f1:1f:91:7e:d3:43:63:3c:b1:11:09:
         ae:b2:32:e8:b6:d9:e3:3c:c1:e2:4f:ba:cc:94:79:2b:9a:5c:
         cc:8c:1e:1a:57:d7:06:39:25:ae:23:01:4b:00:27:74:91:4d:
         e8:f4:4f:80:3e:98:d1:81:ba:ef:5c:ac:e3:74:87:93:d2:4a:
         d0:0f:f9:b3:b1:8f:19:aa:ce:1e:99:9b:5e:dc:35:6f:16:47:
         80:50:42:d6:62:9f:71:70:93:d3:f0:a8:6a:b5:cc:8b:7a:ae:
         c4:2a:3c:c3:1f:33:a2:d7:80:27:c4:7f:a6:2f:a1:6e:4d:ef:
         cc:bb:62:86:28:ec:22:49:e6:63:d6:45:b1:7b:b4:4e:b1:22:
         b6:34:4b:75:07:af:b5:0e:03:a0:a1:a3:21:fc:4c:16:45:bc:
         50:31:f2:50:c9:f8:80:33:cd:bb:2a:7d:8c:c2:84:6a:b3:ed:
         d5:04:84:31:10:5f:af:27:08:8e:c0:7b:0b:c9:7d:18:ca:96:
         e6:7d:f9:a6:8a:c7:ee:1a:d6:9e:5d:0c:e4:f8:21:ed:b6:e2:
         d1:62:67:27:94:29:69:dd:22:52:4f:1a:c6:b6:7a:a8:51:3d:
         0f:3b:01:b3
-----BEGIN CERTIFICATE-----
MIIDLjCCAhagAwIBAgIJAMhSwPh6zkI9MA0GCSqGSIb3DQEBCwUAMBYxFDASBgNV
BAMMC0RBIHJpZWRvbTEzMB4XDTE4MDEyNjEwMzgyNVoXDTE5MDEyNjEwMzgyNVow
GjEYMBYGA1UEAwwPU2VydmVyLXJpZWRvbTEzMIIBIjANBgkqhkiG9w0BAQEFAAOC
AQ8AMIIBCgKCAQEAqKPg5zOVxEMTvp07qfTZ0GcS7zDH0oZdEP7th3Ck1mKeibOd
7UUUNZlUCUz3E3Tb1f/RIIPNueufHVM4nIDJy5jckAG7H2C+fzfObxfLcOKKOymO
e9BjcygFv5MLZlN8jD23lhhP8oF6JHJVoDLW83COTahzGC/a1chA/p9hZb5SbMO+
EHij4PHKLWTVtQ6/KiFOUx9l8GWPqlbDMOCUxEjfmIVp5tOw6uoy4D+mOKoRjwkb
TbWRS04JpPYn+neljCTOmonE5SAcnWuIF7lfX+/3B8CLI2UIQoNQ/5knOnNfvJzC
EcW53q+dpC5hkfGILlgBmmnmVyQhNGbWzNDiCwIDAQABo3sweTAJBgNVHRMEAjAA
MCwGCWCGSAGG+EIBDQQfFh1PcGVuU1NMIEdlbmVyYXRlZCBDZXJ0aWZpY2F0ZTAd
BgNVHQ4EFgQUvPRSW+xVtWCuIm7wAZz2D25N3+owHwYDVR0jBBgwFoAUVmq+PlmH
ZB2RQDU+7/UQ11RGhAwwDQYJKoZIhvcNAQELBQADggEBAIjM3mZvja/dlDmxHoXt
kmg1ElBNzXTtfojxH5F+00NjPLERCa6yMui22eM8weJPusyUeSuaXMyMHhpX1wY5
Ja4jAUsAJ3SRTej0T4A+mNGBuu9crON0h5PSStAP+bOxjxmqzh6Zm17cNW8WR4BQ
QtZin3Fwk9PwqGq1zIt6rsQqPMMfM6LXgCfEf6YvoW5N78y7YoYo7CJJ5mPWRbF7
tE6xIrY0S3UHr7UOA6ChoyH8TBZFvFAx8lDJ+IAzzbsqfYzChGqz7dUEhDEQX68n
CI7AewvJfRjKluZ9+aaKx+4a1p5dDOT4Ie224tFiZyeUKWndIlJPGsa2eqhRPQ87
AbM=
-----END CERTIFICATE-----
