Certificate:
    Data:
        Version: 3 (0x2)
        Serial Number: 14434811929120621116 (0xc852c0f87ace423c)
    Signature Algorithm: sha256WithRSAEncryption
        Issuer: CN=DA riedom13
        Validity
            Not Before: Jan 26 10:25:32 2018 GMT
            Not After : Jan 26 10:25:32 2019 GMT
        Subject: CN=DA riedom13
        Subject Public Key Info:
            Public Key Algorithm: rsaEncryption
                Public-Key: (2048 bit)
                Modulus:
                    00:d4:d6:84:89:54:f8:99:a3:07:d9:ed:67:de:d6:
                    e4:8b:0b:a2:92:91:d9:eb:c0:31:16:57:ec:13:46:
                    6f:e4:ed:e9:09:70:af:3b:20:f7:e0:0f:de:b9:35:
                    f1:14:5c:9d:f7:05:06:fa:0f:d7:5e:53:f4:be:9d:
                    31:27:5b:c0:d5:4e:e4:d8:4d:14:ee:8b:01:14:1f:
                    72:ad:09:f1:fa:78:56:e2:87:01:51:10:83:97:a8:
                    92:1a:46:fd:0f:63:79:b6:7d:e4:70:c4:7b:52:7a:
                    1c:97:e8:2f:e1:89:e8:1a:00:6f:d2:5f:dd:af:bf:
                    de:94:94:cf:b0:e3:0d:35:6c:ac:d6:9f:5a:fd:ed:
                    d7:58:bb:05:d7:b8:22:3c:a9:0d:ca:1c:75:7c:e1:
                    ca:e7:6f:12:40:77:4b:b6:9a:3a:02:0e:a1:0a:94:
                    64:de:4c:73:71:ca:1a:7d:0b:e1:01:91:94:9d:ac:
                    b7:82:7b:9d:77:77:7c:39:39:ac:dd:d9:9a:f9:08:
                    11:ff:cc:a6:7e:20:27:f9:7b:94:54:bc:2b:7c:50:
                    e8:37:fa:dc:c8:80:c0:34:22:50:25:ae:36:ce:95:
                    64:1f:fc:98:8b:59:e1:9c:fa:a6:df:b1:31:c2:f8:
                    4f:ec:50:ef:0f:97:e4:81:d1:e7:5a:29:48:3a:c7:
                    de:83
                Exponent: 65537 (0x10001)
        X509v3 extensions:
            X509v3 Subject Key Identifier: 
                56:6A:BE:3E:59:87:64:1D:91:40:35:3E:EF:F5:10:D7:54:46:84:0C
            X509v3 Authority Key Identifier: 
                keyid:56:6A:BE:3E:59:87:64:1D:91:40:35:3E:EF:F5:10:D7:54:46:84:0C

            X509v3 Basic Constraints: 
                CA:TRUE
    Signature Algorithm: sha256WithRSAEncryption
         c3:aa:0c:9c:2f:b8:c5:c8:17:4d:ec:53:29:39:46:b0:76:e9:
         37:69:5e:c2:48:18:5c:47:71:17:f9:cb:36:a4:16:0b:40:3f:
         77:c5:bc:5a:2d:32:3c:91:d5:42:ca:a7:4c:a6:25:5d:3a:97:
         bc:da:b3:31:35:34:b2:0f:f5:42:8d:1d:83:de:78:3a:fd:3d:
         52:19:81:30:28:b1:e0:50:da:05:c0:64:34:b1:81:27:d3:79:
         ff:3a:55:61:b2:35:07:86:a1:92:78:29:35:d0:11:3a:49:bc:
         cd:7b:9f:76:03:0b:72:b4:c3:72:3f:67:f9:8a:1e:34:44:09:
         9c:11:8e:9b:16:53:c5:38:2b:46:50:40:00:4a:16:20:0e:85:
         17:20:6d:ff:a2:29:c2:5a:0c:83:94:74:fc:5d:3f:9b:34:14:
         38:55:a0:c4:87:11:76:00:1e:af:98:1e:16:a1:30:c4:d7:92:
         d3:b2:29:1b:23:33:ab:42:32:f9:58:cd:bb:0d:bb:d9:99:4d:
         8c:cf:f9:56:7c:00:33:84:4f:00:4b:b9:9c:fe:ca:02:ef:b4:
         8f:ea:46:82:6a:b3:d3:e6:ba:10:6e:83:c1:cb:c7:c6:2f:6f:
         fe:19:6b:c2:28:e7:bb:11:6d:51:10:0c:ed:ee:ca:93:53:7e:
         d5:17:ea:44
-----BEGIN CERTIFICATE-----
MIIC/zCCAeegAwIBAgIJAMhSwPh6zkI8MA0GCSqGSIb3DQEBCwUAMBYxFDASBgNV
BAMMC0RBIHJpZWRvbTEzMB4XDTE4MDEyNjEwMjUzMloXDTE5MDEyNjEwMjUzMlow
FjEUMBIGA1UEAwwLREEgcmllZG9tMTMwggEiMA0GCSqGSIb3DQEBAQUAA4IBDwAw
ggEKAoIBAQDU1oSJVPiZowfZ7Wfe1uSLC6KSkdnrwDEWV+wTRm/k7ekJcK87IPfg
D965NfEUXJ33BQb6D9deU/S+nTEnW8DVTuTYTRTuiwEUH3KtCfH6eFbihwFREIOX
qJIaRv0PY3m2feRwxHtSehyX6C/hiegaAG/SX92vv96UlM+w4w01bKzWn1r97ddY
uwXXuCI8qQ3KHHV84crnbxJAd0u2mjoCDqEKlGTeTHNxyhp9C+EBkZSdrLeCe513
d3w5Oazd2Zr5CBH/zKZ+ICf5e5RUvCt8UOg3+tzIgMA0IlAlrjbOlWQf/JiLWeGc
+qbfsTHC+E/sUO8Pl+SB0edaKUg6x96DAgMBAAGjUDBOMB0GA1UdDgQWBBRWar4+
WYdkHZFANT7v9RDXVEaEDDAfBgNVHSMEGDAWgBRWar4+WYdkHZFANT7v9RDXVEaE
DDAMBgNVHRMEBTADAQH/MA0GCSqGSIb3DQEBCwUAA4IBAQDDqgycL7jFyBdN7FMp
OUawduk3aV7CSBhcR3EX+cs2pBYLQD93xbxaLTI8kdVCyqdMpiVdOpe82rMxNTSy
D/VCjR2D3ng6/T1SGYEwKLHgUNoFwGQ0sYEn03n/OlVhsjUHhqGSeCk10BE6SbzN
e592AwtytMNyP2f5ih40RAmcEY6bFlPFOCtGUEAAShYgDoUXIG3/oinCWgyDlHT8
XT+bNBQ4VaDEhxF2AB6vmB4WoTDE15LTsikbIzOrQjL5WM27DbvZmU2Mz/lWfAAz
hE8AS7mc/soC77SP6kaCarPT5roQboPBy8fGL2/+GWvCKOe7EW1REAzt7sqTU37V
F+pE
-----END CERTIFICATE-----
