Certificate:
    Data:
        Version: 3 (0x2)
        Serial Number: 16367933435042425012 (0xe32694bcf6f168b4)
    Signature Algorithm: sha256WithRSAEncryption
        Issuer: CN=CA picdom12
        Validity
            Not Before: Jan 26 10:37:48 2018 GMT
            Not After : Jan 26 10:37:48 2019 GMT
        Subject: CN=server-picdom12
        Subject Public Key Info:
            Public Key Algorithm: rsaEncryption
                Public-Key: (2048 bit)
                Modulus:
                    00:ac:73:ac:0c:98:08:e1:e4:43:69:8b:f6:e0:94:
                    44:07:2c:60:f4:38:e0:1a:50:97:58:a8:b8:7c:14:
                    7e:2d:c1:8c:80:e0:aa:69:a5:80:72:1c:b5:60:ab:
                    34:30:1d:64:e5:b6:ee:1f:c4:8b:a3:a7:73:0d:cd:
                    e1:bd:44:eb:1d:48:07:69:fc:b8:0f:ec:e6:8e:bc:
                    7c:ae:41:eb:4e:11:8d:f9:f7:0b:9d:c2:79:bc:c3:
                    46:fc:3c:0d:46:d5:5c:27:cb:bc:d9:19:1b:5e:25:
                    b8:29:26:ab:96:75:58:ea:c5:45:f2:1a:91:ac:51:
                    ae:c5:41:79:57:01:58:a3:a4:c0:53:95:35:ac:29:
                    e9:87:56:89:97:23:20:34:a9:2c:9f:3f:7a:da:d0:
                    9b:94:ed:56:d2:aa:b9:cb:89:5b:92:2d:12:e5:4e:
                    c8:5f:e2:18:0a:f5:51:07:3e:d0:c6:07:6c:66:f4:
                    3b:4f:30:ab:cc:a7:a0:79:1e:24:0e:f3:c9:c8:e7:
                    dd:cb:bf:05:dd:41:84:49:62:f9:3a:cf:04:ad:d3:
                    45:c7:4f:ad:1d:7b:14:1f:76:5d:c7:94:75:b8:10:
                    2b:9b:12:06:ff:50:c2:22:a7:3d:1e:29:69:88:71:
                    2f:f4:66:e4:e3:6f:1e:d8:06:28:bc:dd:30:53:e8:
                    5f:97
                Exponent: 65537 (0x10001)
        X509v3 extensions:
            X509v3 Basic Constraints: 
                CA:FALSE
            Netscape Comment: 
                OpenSSL Generated Certificate
            X509v3 Subject Key Identifier: 
                A2:B1:85:65:68:05:0D:09:97:8F:41:00:90:61:8B:D4:57:B1:99:20
            X509v3 Authority Key Identifier: 
                keyid:B4:AD:1E:F4:71:18:53:1E:F0:6E:57:A9:73:ED:E4:A4:34:6A:BC:71

    Signature Algorithm: sha256WithRSAEncryption
         15:cd:2e:9a:9c:d9:87:2e:81:f3:3e:64:56:a3:b6:2d:50:e8:
         d5:14:c9:d4:b3:14:59:93:30:80:d2:ea:59:f6:cd:86:d8:53:
         8e:fa:47:58:6f:68:7d:75:1c:12:e5:d6:1c:f5:2c:18:8d:9f:
         51:fe:2e:28:e0:9c:97:33:37:fa:b9:c9:b1:1c:d0:d2:a4:ec:
         1b:ee:7d:72:b9:56:11:90:9b:a0:5e:35:5d:73:b5:80:58:27:
         21:11:0c:f1:e6:79:52:fd:04:09:6c:25:89:dc:48:bc:48:9a:
         33:a6:83:a0:f7:57:9c:41:66:4f:19:2f:58:48:bd:6a:92:73:
         08:a6:4a:36:98:ea:77:02:26:e8:c0:c5:2f:21:50:26:fd:ea:
         0c:02:f6:14:d9:dc:5c:2a:e3:7c:0c:6c:0e:b8:81:2d:92:7a:
         1a:07:e4:aa:35:31:f3:b9:e2:22:37:6f:a8:de:42:1a:5b:46:
         a4:01:c0:68:ef:90:2f:ba:94:b3:a5:ad:92:d3:9f:c5:06:a4:
         a9:2e:1b:e0:ff:89:0e:5b:f6:63:8e:60:ba:d9:2b:f3:57:0b:
         6c:3a:a3:50:b5:62:98:43:fc:3b:c7:68:92:ca:6e:5b:4b:5b:
         8d:72:6a:ac:0f:60:dd:0a:b3:05:c8:07:57:81:4e:a3:45:51:
         b0:0a:02:16
-----BEGIN CERTIFICATE-----
MIIDLjCCAhagAwIBAgIJAOMmlLz28Wi0MA0GCSqGSIb3DQEBCwUAMBYxFDASBgNV
BAMMC0NBIHBpY2RvbTEyMB4XDTE4MDEyNjEwMzc0OFoXDTE5MDEyNjEwMzc0OFow
GjEYMBYGA1UEAwwPc2VydmVyLXBpY2RvbTEyMIIBIjANBgkqhkiG9w0BAQEFAAOC
AQ8AMIIBCgKCAQEArHOsDJgI4eRDaYv24JREByxg9DjgGlCXWKi4fBR+LcGMgOCq
aaWAchy1YKs0MB1k5bbuH8SLo6dzDc3hvUTrHUgHafy4D+zmjrx8rkHrThGN+fcL
ncJ5vMNG/DwNRtVcJ8u82RkbXiW4KSarlnVY6sVF8hqRrFGuxUF5VwFYo6TAU5U1
rCnph1aJlyMgNKksnz962tCblO1W0qq5y4lbki0S5U7IX+IYCvVRBz7QxgdsZvQ7
TzCrzKegeR4kDvPJyOfdy78F3UGESWL5Os8ErdNFx0+tHXsUH3Zdx5R1uBArmxIG
/1DCIqc9HilpiHEv9Gbk428e2AYovN0wU+hflwIDAQABo3sweTAJBgNVHRMEAjAA
MCwGCWCGSAGG+EIBDQQfFh1PcGVuU1NMIEdlbmVyYXRlZCBDZXJ0aWZpY2F0ZTAd
BgNVHQ4EFgQUorGFZWgFDQmXj0EAkGGL1FexmSAwHwYDVR0jBBgwFoAUtK0e9HEY
Ux7wblepc+3kpDRqvHEwDQYJKoZIhvcNAQELBQADggEBABXNLpqc2YcugfM+ZFaj
ti1Q6NUUydSzFFmTMIDS6ln2zYbYU476R1hvaH11HBLl1hz1LBiNn1H+LijgnJcz
N/q5ybEc0NKk7BvufXK5VhGQm6BeNV1ztYBYJyERDPHmeVL9BAlsJYncSLxImjOm
g6D3V5xBZk8ZL1hIvWqScwimSjaY6ncCJujAxS8hUCb96gwC9hTZ3Fwq43wMbA64
gS2SehoH5Ko1MfO54iI3b6jeQhpbRqQBwGjvkC+6lLOlrZLTn8UGpKkuG+D/iQ5b
9mOOYLrZK/NXC2w6o1C1YphD/DvHaJLKbltLW41yaqwPYN0KswXIB1eBTqNFUbAK
AhY=
-----END CERTIFICATE-----
