Certificate:
    Data:
        Version: 3 (0x2)
        Serial Number:
            9a:3c:89:cf:4d:6c:a9:6a
    Signature Algorithm: sha256WithRSAEncryption
        Issuer: CN=Anton Autorisierer
        Validity
            Not Before: Jan 26 10:27:51 2018 GMT
            Not After : Jan 24 10:27:51 2028 GMT
        Subject: CN=Anton Autorisierer
        Subject Public Key Info:
            Public Key Algorithm: rsaEncryption
                Public-Key: (2048 bit)
                Modulus:
                    00:d2:f4:74:97:ac:c7:03:05:46:56:e9:72:9a:7e:
                    26:c3:38:2f:c1:b2:f5:e4:04:47:e0:8d:d8:a9:52:
                    d2:fa:9d:54:ad:51:15:92:ee:94:72:4b:d6:1b:00:
                    30:40:10:84:d2:24:53:ce:80:63:03:98:9a:d1:76:
                    dd:b1:1a:1e:ad:52:b4:03:d2:01:81:56:4e:fb:a8:
                    f8:d6:63:f1:37:51:b9:2c:35:3b:db:66:65:45:fc:
                    69:1b:b7:a1:5d:0b:74:42:7c:c0:e6:e7:51:11:64:
                    81:69:f4:9f:5a:89:e6:97:f4:9d:36:e5:19:a9:77:
                    6e:8d:b6:de:8e:75:05:4b:0f:e7:b8:bc:1e:50:82:
                    63:5b:6d:f4:fe:db:fc:15:95:4c:92:86:3f:f0:9e:
                    ca:1f:73:cf:16:08:16:d1:38:ce:0a:5e:0b:2d:a7:
                    3e:35:42:ba:ed:b9:82:c8:f8:cc:a6:aa:3e:d1:c2:
                    b3:7a:14:c4:e1:b1:f3:c2:fa:cd:c4:aa:22:aa:a3:
                    3d:77:87:2b:aa:11:2f:47:8d:98:d5:f7:e1:3e:67:
                    8f:af:00:57:17:28:88:1d:e4:ab:d3:60:e8:46:e8:
                    f0:d2:e0:c6:ce:4e:af:df:41:e9:be:38:de:f1:62:
                    4f:4d:58:61:92:f9:50:56:ca:7e:f2:dc:7a:7b:d4:
                    6d:c5
                Exponent: 65537 (0x10001)
        X509v3 extensions:
            X509v3 Subject Key Identifier: 
                3F:08:87:93:E2:60:45:60:0A:44:7C:99:B1:59:BC:18:9D:F0:7B:CD
            X509v3 Authority Key Identifier: 
                keyid:3F:08:87:93:E2:60:45:60:0A:44:7C:99:B1:59:BC:18:9D:F0:7B:CD

            X509v3 Basic Constraints: 
                CA:TRUE
    Signature Algorithm: sha256WithRSAEncryption
         9d:8a:35:d8:b2:1f:5c:b6:f3:73:19:3b:b6:4c:7a:0c:75:8f:
         65:b1:04:e9:44:8c:03:9d:6d:a8:5e:cc:0c:f3:29:00:63:98:
         59:aa:26:88:d0:68:3a:6b:9f:9d:db:c7:d5:70:e3:6d:80:7d:
         fa:45:60:c7:1c:bb:62:b5:33:15:b9:0f:a3:06:fe:02:38:89:
         da:3d:c0:00:e3:19:40:d3:8b:55:e5:47:8b:e1:4a:68:97:54:
         05:f7:3d:6e:0b:24:cd:1e:b0:30:47:f9:f4:f4:ab:8b:29:22:
         04:81:ea:0c:1c:26:9e:ff:dc:75:9d:f7:45:1c:97:46:d2:a2:
         e3:70:88:9e:41:e0:3e:67:89:1b:42:0d:6b:b9:68:d2:b2:0f:
         78:0f:be:28:d0:90:63:17:25:12:84:b0:24:bf:8f:d3:d7:00:
         24:59:a6:de:e3:33:39:0a:b9:d2:7f:b3:f5:72:af:7d:2b:c9:
         4d:73:a8:e4:b6:c6:e5:9d:90:66:ec:77:cb:bf:66:2d:a3:96:
         b0:72:92:09:4e:fc:11:d5:50:df:e6:a2:9f:66:84:74:0c:4d:
         38:1f:a4:21:a8:f4:6c:70:d9:8f:a1:d1:11:dd:35:2e:a6:fc:
         7b:aa:7c:66:c5:bd:33:c5:c4:39:76:f3:c7:3d:18:e3:ab:67:
         f7:15:5a:b0
-----BEGIN CERTIFICATE-----
MIIDDTCCAfWgAwIBAgIJAJo8ic9NbKlqMA0GCSqGSIb3DQEBCwUAMB0xGzAZBgNV
BAMMEkFudG9uIEF1dG9yaXNpZXJlcjAeFw0xODAxMjYxMDI3NTFaFw0yODAxMjQx
MDI3NTFaMB0xGzAZBgNVBAMMEkFudG9uIEF1dG9yaXNpZXJlcjCCASIwDQYJKoZI
hvcNAQEBBQADggEPADCCAQoCggEBANL0dJesxwMFRlbpcpp+JsM4L8Gy9eQER+CN
2KlS0vqdVK1RFZLulHJL1hsAMEAQhNIkU86AYwOYmtF23bEaHq1StAPSAYFWTvuo
+NZj8TdRuSw1O9tmZUX8aRu3oV0LdEJ8wObnURFkgWn0n1qJ5pf0nTblGal3bo22
3o51BUsP57i8HlCCY1tt9P7b/BWVTJKGP/Ceyh9zzxYIFtE4zgpeCy2nPjVCuu25
gsj4zKaqPtHCs3oUxOGx88L6zcSqIqqjPXeHK6oRL0eNmNX34T5nj68AVxcoiB3k
q9Ng6Ebo8NLgxs5Or99B6b443vFiT01YYZL5UFbKfvLcenvUbcUCAwEAAaNQME4w
HQYDVR0OBBYEFD8Ih5PiYEVgCkR8mbFZvBid8HvNMB8GA1UdIwQYMBaAFD8Ih5Pi
YEVgCkR8mbFZvBid8HvNMAwGA1UdEwQFMAMBAf8wDQYJKoZIhvcNAQELBQADggEB
AJ2KNdiyH1y283MZO7ZMegx1j2WxBOlEjAOdbahezAzzKQBjmFmqJojQaDprn53b
x9Vw422AffpFYMccu2K1MxW5D6MG/gI4ido9wADjGUDTi1XlR4vhSmiXVAX3PW4L
JM0esDBH+fT0q4spIgSB6gwcJp7/3HWd90Ucl0bSouNwiJ5B4D5niRtCDWu5aNKy
D3gPvijQkGMXJRKEsCS/j9PXACRZpt7jMzkKudJ/s/Vyr30ryU1zqOS2xuWdkGbs
d8u/Zi2jlrBykglO/BHVUN/mop9mhHQMTTgfpCGo9Gxw2Y+h0RHdNS6m/HuqfGbF
vTPFxDl288c9GOOrZ/cVWrA=
-----END CERTIFICATE-----
