Certificate:
    Data:
        Version: 3 (0x2)
        Serial Number:
            9a:3c:89:cf:4d:6c:a9:6b
    Signature Algorithm: sha256WithRSAEncryption
        Issuer: CN=Anton Autorisierer
        Validity
            Not Before: Jan 26 10:37:40 2018 GMT
            Not After : Jan 24 10:37:40 2028 GMT
        Subject: CN=sabine-server
        Subject Public Key Info:
            Public Key Algorithm: rsaEncryption
                Public-Key: (2048 bit)
                Modulus:
                    00:c8:92:8a:79:5c:71:45:f7:10:fa:d0:d7:ba:a7:
                    37:25:b9:e0:bc:9c:ca:cb:10:2d:52:50:77:6f:ec:
                    fd:15:d0:3e:97:d2:ad:6a:db:0c:99:86:5b:2e:30:
                    83:5e:51:10:38:5d:49:6b:31:a5:8b:88:67:1e:47:
                    2a:45:df:6d:d2:e5:44:e4:b9:15:c4:fb:68:c8:7d:
                    ec:75:f7:57:a1:44:a2:e3:b0:bf:9e:52:95:47:31:
                    28:ec:d2:0b:dd:37:ad:7c:b7:8f:99:e4:1d:34:e2:
                    c3:16:76:92:64:13:a0:58:37:8d:41:a1:57:55:08:
                    3b:1f:fd:b3:bd:4d:8c:f8:c5:d6:6e:88:d5:54:7a:
                    a6:0f:63:df:d0:1d:10:3f:d9:53:42:b9:96:8e:8d:
                    02:97:fd:a6:94:6c:0f:1c:0f:9d:fd:f1:b8:45:8d:
                    95:ca:91:d4:47:fd:66:e8:d7:80:db:16:4d:61:75:
                    b4:29:50:1e:98:bb:ac:fb:b0:0e:ee:8e:f5:bc:c4:
                    46:7d:c5:32:23:cc:7e:95:1b:91:7a:f1:25:35:f4:
                    b0:14:bb:c7:49:71:5c:29:d5:62:92:51:7b:c2:10:
                    7d:f0:80:38:65:3c:2a:a2:7e:6d:b5:98:c3:8a:d6:
                    b2:78:00:e1:06:b5:16:29:2f:5a:38:24:3e:4f:13:
                    35:c1
                Exponent: 65537 (0x10001)
        X509v3 extensions:
            X509v3 Basic Constraints: 
                CA:FALSE
            Netscape Comment: 
                OpenSSL Generated Certificate
            X509v3 Subject Key Identifier: 
                F3:D4:5E:83:73:6F:95:E5:F4:7D:5D:7A:8A:84:AF:04:83:61:84:4B
            X509v3 Authority Key Identifier: 
                keyid:3F:08:87:93:E2:60:45:60:0A:44:7C:99:B1:59:BC:18:9D:F0:7B:CD

    Signature Algorithm: sha256WithRSAEncryption
         bd:07:01:f8:7b:5f:ac:b5:00:c5:ec:6d:71:fc:b2:84:fb:86:
         2e:a8:e0:a7:56:43:ce:d9:b7:db:d8:12:e7:94:7b:9e:fd:a9:
         1d:23:6a:48:51:7e:eb:90:48:63:f3:43:b9:95:6b:29:e1:ff:
         16:80:bf:c5:7f:64:97:64:c8:c0:a5:5a:c0:20:d6:61:16:c5:
         34:85:33:aa:61:37:e5:6e:9c:15:55:87:8b:8f:8e:16:b0:99:
         df:f0:ee:39:31:53:57:bf:c9:e9:8f:23:57:db:96:5e:5e:3a:
         fa:bd:b0:5a:d2:14:17:20:fd:ba:a2:3e:d1:84:4b:cd:90:26:
         74:c9:9e:fe:83:9f:38:34:56:2d:b1:c5:ed:01:cc:b6:b5:21:
         7b:7b:e1:26:87:a4:f2:64:e9:92:35:eb:ec:10:ca:ca:b0:2d:
         a6:ef:0e:07:7a:54:b3:68:94:aa:77:3b:fd:39:6b:3d:0d:30:
         e0:46:0b:b2:d9:ce:ce:ba:24:f4:13:66:c5:ad:98:8a:d7:97:
         b6:a1:94:eb:45:88:4b:0a:f8:9f:57:cd:36:da:ee:20:28:bf:
         a8:d0:cd:c8:43:73:c5:9d:e9:30:c0:0b:c6:78:c6:83:4e:26:
         20:81:99:26:11:34:ac:5e:b8:b8:80:d7:83:fc:50:1b:a4:2b:
         2d:92:7f:03
-----BEGIN CERTIFICATE-----
MIIDMzCCAhugAwIBAgIJAJo8ic9NbKlrMA0GCSqGSIb3DQEBCwUAMB0xGzAZBgNV
BAMMEkFudG9uIEF1dG9yaXNpZXJlcjAeFw0xODAxMjYxMDM3NDBaFw0yODAxMjQx
MDM3NDBaMBgxFjAUBgNVBAMMDXNhYmluZS1zZXJ2ZXIwggEiMA0GCSqGSIb3DQEB
AQUAA4IBDwAwggEKAoIBAQDIkop5XHFF9xD60Ne6pzclueC8nMrLEC1SUHdv7P0V
0D6X0q1q2wyZhlsuMINeURA4XUlrMaWLiGceRypF323S5UTkuRXE+2jIfex191eh
RKLjsL+eUpVHMSjs0gvdN618t4+Z5B004sMWdpJkE6BYN41BoVdVCDsf/bO9TYz4
xdZuiNVUeqYPY9/QHRA/2VNCuZaOjQKX/aaUbA8cD5398bhFjZXKkdRH/Wbo14Db
Fk1hdbQpUB6Yu6z7sA7ujvW8xEZ9xTIjzH6VG5F68SU19LAUu8dJcVwp1WKSUXvC
EH3wgDhlPCqifm21mMOK1rJ4AOEGtRYpL1o4JD5PEzXBAgMBAAGjezB5MAkGA1Ud
EwQCMAAwLAYJYIZIAYb4QgENBB8WHU9wZW5TU0wgR2VuZXJhdGVkIENlcnRpZmlj
YXRlMB0GA1UdDgQWBBTz1F6Dc2+V5fR9XXqKhK8Eg2GESzAfBgNVHSMEGDAWgBQ/
CIeT4mBFYApEfJmxWbwYnfB7zTANBgkqhkiG9w0BAQsFAAOCAQEAvQcB+HtfrLUA
xextcfyyhPuGLqjgp1ZDztm329gS55R7nv2pHSNqSFF+65BIY/NDuZVrKeH/FoC/
xX9kl2TIwKVawCDWYRbFNIUzqmE35W6cFVWHi4+OFrCZ3/DuOTFTV7/J6Y8jV9uW
Xl46+r2wWtIUFyD9uqI+0YRLzZAmdMme/oOfODRWLbHF7QHMtrUhe3vhJoek8mTp
kjXr7BDKyrAtpu8OB3pUs2iUqnc7/TlrPQ0w4EYLstnOzrok9BNmxa2YiteXtqGU
60WISwr4n1fNNtruICi/qNDNyENzxZ3pMMALxnjGg04mIIGZJhE0rF64uIDXg/xQ
G6QrLZJ/Aw==
-----END CERTIFICATE-----
