Certificate:
    Data:
        Version: 3 (0x2)
        Serial Number: 12272795428585590929 (0xaa51ba6b11e1d091)
    Signature Algorithm: sha256WithRSAEncryption
        Issuer: CN=CA WOLJUM13
        Validity
            Not Before: Jan 26 10:23:54 2018 GMT
            Not After : Jan 24 10:23:54 2028 GMT
        Subject: CN=CA WOLJUM13
        Subject Public Key Info:
            Public Key Algorithm: rsaEncryption
                Public-Key: (2048 bit)
                Modulus:
                    00:b5:07:eb:99:df:32:81:3b:15:a8:6b:27:5c:eb:
                    1c:88:c6:78:eb:c6:ca:34:57:04:eb:24:4a:1c:22:
                    fa:51:5b:0c:3d:a3:50:78:1b:41:4e:8e:37:42:c0:
                    89:bb:36:cd:29:59:9f:95:8e:f6:f7:6e:f9:e4:41:
                    10:af:16:f9:c9:ee:29:39:51:a6:75:6e:3b:b8:b9:
                    c8:02:fa:4e:ae:22:49:04:b1:e2:ce:f4:c1:4e:7f:
                    4b:d4:91:c3:15:a5:4e:a1:cb:cc:8d:81:5d:36:71:
                    f5:09:20:7a:a3:9e:de:ba:03:44:18:00:55:ce:95:
                    88:66:84:d3:b0:ab:60:b9:c8:ea:6c:f2:ac:a0:4c:
                    b4:06:0e:35:6b:4b:ac:91:33:c7:db:ca:f7:fd:b2:
                    d3:53:91:73:8e:d4:60:70:6e:1a:cb:c4:fd:8b:c7:
                    f3:2e:11:f6:47:ab:99:40:66:af:01:e7:e5:70:6a:
                    19:da:94:b4:a9:bd:16:fe:3c:f4:61:9c:19:6d:0f:
                    84:63:5a:61:52:e9:aa:7a:17:6a:e2:8c:e8:62:fc:
                    55:3a:04:d3:6e:9f:4d:b2:08:e4:30:c0:45:b9:c0:
                    a9:4a:e0:b4:ff:2f:8f:07:76:75:5f:dd:a8:4e:c4:
                    5d:29:bc:d8:ea:fe:1c:b3:13:c1:e1:b7:c5:e6:83:
                    ed:19
                Exponent: 65537 (0x10001)
        X509v3 extensions:
            X509v3 Subject Key Identifier: 
                54:5D:D7:AD:82:4D:41:34:E9:E3:4D:26:8F:D5:71:EC:53:05:E3:C5
            X509v3 Authority Key Identifier: 
                keyid:54:5D:D7:AD:82:4D:41:34:E9:E3:4D:26:8F:D5:71:EC:53:05:E3:C5

            X509v3 Basic Constraints: 
                CA:TRUE
    Signature Algorithm: sha256WithRSAEncryption
         52:11:f4:a0:7f:c1:f6:3c:6d:1f:6d:ef:ec:cf:5e:c9:43:0f:
         e8:f5:8f:eb:4e:46:8e:39:46:cf:ba:ad:6f:4a:e9:8d:61:9f:
         98:8f:90:9c:da:e3:b2:86:87:3d:9b:90:0f:a5:8b:6f:ca:0e:
         28:a1:92:02:5d:22:17:89:21:6a:d4:02:34:c8:9c:35:a2:ce:
         6d:89:4c:71:69:18:e4:ae:d9:58:da:7b:41:53:a6:2d:f0:11:
         c6:b8:a4:7f:95:43:1d:19:2b:a4:42:11:38:64:8b:39:ce:7a:
         be:43:08:8e:5a:be:47:84:b4:d7:2a:35:6e:42:46:a3:a7:2b:
         c3:e0:4f:94:04:39:52:ac:16:cb:7f:9c:c5:b6:b1:a0:90:f4:
         3f:93:2c:0c:67:56:c8:f1:eb:dc:13:7f:8e:91:96:13:75:e0:
         00:37:7f:0b:70:e4:e3:7e:5e:ca:99:8b:32:76:6e:09:16:3a:
         c1:53:b1:ec:63:9b:a4:05:b3:e3:33:95:34:7b:41:7b:08:ca:
         3b:1b:0f:f2:b9:ba:29:38:85:98:cd:99:9a:0c:6b:42:d9:22:
         e4:27:ee:60:14:5f:ae:8b:2b:90:64:96:3e:41:1f:ad:95:07:
         12:c3:33:2a:75:1d:34:ba:1d:48:7e:20:64:07:c8:e9:8e:db:
         b2:09:67:f8
-----BEGIN CERTIFICATE-----
MIIC/zCCAeegAwIBAgIJAKpRumsR4dCRMA0GCSqGSIb3DQEBCwUAMBYxFDASBgNV
BAMMC0NBIFdPTEpVTTEzMB4XDTE4MDEyNjEwMjM1NFoXDTI4MDEyNDEwMjM1NFow
FjEUMBIGA1UEAwwLQ0EgV09MSlVNMTMwggEiMA0GCSqGSIb3DQEBAQUAA4IBDwAw
ggEKAoIBAQC1B+uZ3zKBOxWoaydc6xyIxnjrxso0VwTrJEocIvpRWww9o1B4G0FO
jjdCwIm7Ns0pWZ+Vjvb3bvnkQRCvFvnJ7ik5UaZ1bju4ucgC+k6uIkkEseLO9MFO
f0vUkcMVpU6hy8yNgV02cfUJIHqjnt66A0QYAFXOlYhmhNOwq2C5yOps8qygTLQG
DjVrS6yRM8fbyvf9stNTkXOO1GBwbhrLxP2Lx/MuEfZHq5lAZq8B5+VwahnalLSp
vRb+PPRhnBltD4RjWmFS6ap6F2rijOhi/FU6BNNun02yCOQwwEW5wKlK4LT/L48H
dnVf3ahOxF0pvNjq/hyzE8Hht8Xmg+0ZAgMBAAGjUDBOMB0GA1UdDgQWBBRUXdet
gk1BNOnjTSaP1XHsUwXjxTAfBgNVHSMEGDAWgBRUXdetgk1BNOnjTSaP1XHsUwXj
xTAMBgNVHRMEBTADAQH/MA0GCSqGSIb3DQEBCwUAA4IBAQBSEfSgf8H2PG0fbe/s
z17JQw/o9Y/rTkaOOUbPuq1vSumNYZ+Yj5Cc2uOyhoc9m5APpYtvyg4ooZICXSIX
iSFq1AI0yJw1os5tiUxxaRjkrtlY2ntBU6Yt8BHGuKR/lUMdGSukQhE4ZIs5znq+
QwiOWr5HhLTXKjVuQkajpyvD4E+UBDlSrBbLf5zFtrGgkPQ/kywMZ1bI8evcE3+O
kZYTdeAAN38LcOTjfl7KmYsydm4JFjrBU7HsY5ukBbPjM5U0e0F7CMo7Gw/yubop
OIWYzZmaDGtC2SLkJ+5gFF+uiyuQZJY+QR+tlQcSwzMqdR00uh1IfiBkB8jpjtuy
CWf4
-----END CERTIFICATE-----
