Certificate:
    Data:
        Version: 3 (0x2)
        Serial Number: 12272795428585590930 (0xaa51ba6b11e1d092)
    Signature Algorithm: sha256WithRSAEncryption
        Issuer: CN=CA WOLJUM13
        Validity
            Not Before: Jan 26 10:37:52 2018 GMT
            Not After : Jan 24 10:37:52 2028 GMT
        Subject: CN=Server-woljum13
        Subject Public Key Info:
            Public Key Algorithm: rsaEncryption
                Public-Key: (2048 bit)
                Modulus:
                    00:d4:e8:75:cc:9d:f6:ca:54:11:b0:92:24:49:a3:
                    39:50:6a:b3:72:d5:b6:65:f0:31:d7:11:db:19:c8:
                    d8:8d:ef:9e:0b:f3:ed:22:9d:4e:33:21:1f:8b:7e:
                    27:64:c7:36:77:ca:8b:03:0e:c2:f4:1e:be:51:c6:
                    93:8e:c3:08:aa:72:aa:00:e1:27:4f:5d:13:fc:75:
                    1b:40:ae:88:bd:c4:04:e1:96:d8:ea:52:87:ea:b4:
                    9a:9e:09:39:e9:56:96:30:49:f4:d1:56:ad:ae:03:
                    88:7d:42:d9:2d:0a:df:a3:e8:60:4d:8e:81:64:94:
                    bb:04:59:a3:24:8a:a2:d7:f7:63:7c:fb:4d:61:5c:
                    fc:7b:c7:ef:b1:14:51:a2:4b:2d:f3:3b:f1:88:07:
                    c7:20:ce:32:35:9a:85:69:28:80:ad:9b:a0:b4:aa:
                    04:eb:94:53:97:39:1c:e2:2a:5d:62:0f:76:21:86:
                    b5:be:08:04:85:0c:9e:b2:b6:90:b4:75:36:4a:24:
                    4e:6e:c4:0d:87:f5:b4:1a:38:38:30:4e:b3:75:ce:
                    0f:f8:d0:62:c9:ae:62:f5:ab:4b:9d:48:8c:f5:ba:
                    63:4b:2a:e0:b1:65:52:bb:aa:d3:20:2a:66:6b:3b:
                    29:32:af:08:30:4e:01:60:6b:04:d7:f5:6e:dc:00:
                    c1:31
                Exponent: 65537 (0x10001)
        X509v3 extensions:
            X509v3 Basic Constraints: 
                CA:FALSE
            Netscape Comment: 
                OpenSSL Generated Certificate
            X509v3 Subject Key Identifier: 
                6F:37:9B:E4:E2:BC:0B:ED:FB:E1:C4:0C:F6:15:C4:03:61:64:23:CB
            X509v3 Authority Key Identifier: 
                keyid:54:5D:D7:AD:82:4D:41:34:E9:E3:4D:26:8F:D5:71:EC:53:05:E3:C5

    Signature Algorithm: sha256WithRSAEncryption
         78:ad:f5:31:04:e0:54:d5:20:ea:31:7b:24:d5:3f:79:94:c9:
         90:d2:a2:eb:c8:9e:dd:7a:ce:b8:f5:6c:5a:d0:e7:fc:da:a8:
         01:f5:db:d1:1e:3f:8f:c3:3d:87:20:30:95:fa:dd:dd:aa:0e:
         77:a9:0f:06:f3:1b:5b:bc:4d:ad:36:49:a4:90:18:fa:1c:2a:
         55:c7:b3:5d:8a:c4:d8:ac:e0:30:c1:3b:31:5e:7f:f4:cb:93:
         56:14:8a:f3:78:b4:48:99:f6:ea:db:22:98:60:88:cb:15:28:
         43:76:80:8e:a9:7b:35:1e:e4:ed:52:bd:48:4b:b8:49:f1:61:
         e7:0f:64:1e:91:63:25:7f:09:45:13:8d:53:14:e0:9b:79:bb:
         25:97:22:e5:78:0c:61:49:11:9e:5e:fb:f6:73:fe:6d:79:d8:
         81:3c:16:8b:5a:a1:c4:88:c7:57:76:52:08:c1:c4:b3:a3:21:
         df:74:9d:d9:c6:81:e0:78:41:88:5c:9c:71:a3:4c:75:03:8e:
         15:e5:8a:77:15:db:bf:f3:74:e3:cc:7e:4c:a1:a3:78:c5:71:
         bf:2f:61:79:18:f8:01:08:9d:db:f3:f0:37:26:30:29:86:dc:
         68:4b:43:0c:56:02:cc:24:e2:15:39:f7:0b:0b:3c:61:3e:18:
         a5:c5:55:cb
-----BEGIN CERTIFICATE-----
MIIDLjCCAhagAwIBAgIJAKpRumsR4dCSMA0GCSqGSIb3DQEBCwUAMBYxFDASBgNV
BAMMC0NBIFdPTEpVTTEzMB4XDTE4MDEyNjEwMzc1MloXDTI4MDEyNDEwMzc1Mlow
GjEYMBYGA1UEAwwPU2VydmVyLXdvbGp1bTEzMIIBIjANBgkqhkiG9w0BAQEFAAOC
AQ8AMIIBCgKCAQEA1Oh1zJ32ylQRsJIkSaM5UGqzctW2ZfAx1xHbGcjYje+eC/Pt
Ip1OMyEfi34nZMc2d8qLAw7C9B6+UcaTjsMIqnKqAOEnT10T/HUbQK6IvcQE4ZbY
6lKH6rSangk56VaWMEn00VatrgOIfULZLQrfo+hgTY6BZJS7BFmjJIqi1/djfPtN
YVz8e8fvsRRRokst8zvxiAfHIM4yNZqFaSiArZugtKoE65RTlzkc4ipdYg92IYa1
vggEhQyesraQtHU2SiRObsQNh/W0Gjg4ME6zdc4P+NBiya5i9atLnUiM9bpjSyrg
sWVSu6rTICpmazspMq8IME4BYGsE1/Vu3ADBMQIDAQABo3sweTAJBgNVHRMEAjAA
MCwGCWCGSAGG+EIBDQQfFh1PcGVuU1NMIEdlbmVyYXRlZCBDZXJ0aWZpY2F0ZTAd
BgNVHQ4EFgQUbzeb5OK8C+374cQM9hXEA2FkI8swHwYDVR0jBBgwFoAUVF3XrYJN
QTTp400mj9Vx7FMF48UwDQYJKoZIhvcNAQELBQADggEBAHit9TEE4FTVIOoxeyTV
P3mUyZDSouvInt16zrj1bFrQ5/zaqAH129EeP4/DPYcgMJX63d2qDnepDwbzG1u8
Ta02SaSQGPocKlXHs12KxNis4DDBOzFef/TLk1YUivN4tEiZ9urbIphgiMsVKEN2
gI6pezUe5O1SvUhLuEnxYecPZB6RYyV/CUUTjVMU4Jt5uyWXIuV4DGFJEZ5e+/Zz
/m152IE8FotaocSIx1d2UgjBxLOjId90ndnGgeB4QYhcnHGjTHUDjhXlincV27/z
dOPMfkyho3jFcb8vYXkY+AEIndvz8DcmMCmG3GhLQwxWAswk4hU59wsLPGE+GKXF
Vcs=
-----END CERTIFICATE-----
