Certificate:
    Data:
        Version: 3 (0x2)
        Serial Number: 12652759217465304232 (0xaf97a1789991a4a8)
    Signature Algorithm: sha256WithRSAEncryption
        Issuer: CN=CA MOEMAM13
        Validity
            Not Before: Jan 26 10:24:25 2018 GMT
            Not After : Jan 26 10:24:25 2019 GMT
        Subject: CN=CA MOEMAM13
        Subject Public Key Info:
            Public Key Algorithm: rsaEncryption
                Public-Key: (2048 bit)
                Modulus:
                    00:c5:0b:1f:47:13:2e:ee:38:00:39:a8:8b:21:ca:
                    8e:57:85:00:de:ad:f9:66:1c:b6:31:5c:76:0e:ea:
                    f3:c0:14:74:78:aa:ca:bb:e5:a2:ad:2f:53:5e:fb:
                    bc:b0:7f:31:15:e7:d4:b4:29:4c:c0:b2:2c:a9:7a:
                    68:3c:49:28:58:7a:f5:a7:e2:ee:f5:bd:4e:7e:81:
                    2a:08:69:d2:b0:87:00:76:bf:1d:36:03:7a:18:c1:
                    bd:ab:95:da:bc:93:cf:14:b2:e3:69:83:c8:02:cf:
                    b8:d2:e9:2f:67:5c:26:63:d5:21:06:72:91:e4:9d:
                    b1:a7:80:9e:b0:71:2b:63:a0:f3:0f:7b:49:71:1a:
                    fa:49:5e:32:83:cb:b8:6b:47:da:79:27:1a:dd:ff:
                    6c:3f:91:20:61:94:be:fa:53:6d:5d:cc:f1:54:a9:
                    23:57:a5:e1:20:8a:1f:25:b9:97:24:bc:54:61:62:
                    59:db:75:17:c7:dc:7e:9b:e0:0f:84:6d:68:42:f5:
                    06:50:ae:4c:7e:cb:d4:de:60:39:f3:db:34:a3:98:
                    82:96:a0:7c:dd:32:f9:4a:ee:64:e1:2d:c1:07:bb:
                    cb:cd:e6:b5:48:ea:12:24:9d:b3:a4:4b:b8:7f:c8:
                    58:8c:93:cb:7a:2d:65:7b:14:e0:19:f1:63:3c:fd:
                    5a:1b
                Exponent: 65537 (0x10001)
        X509v3 extensions:
            X509v3 Subject Key Identifier: 
                67:41:E1:07:97:82:B1:CE:E6:F8:9A:24:21:FF:87:58:F5:83:01:61
            X509v3 Authority Key Identifier: 
                keyid:67:41:E1:07:97:82:B1:CE:E6:F8:9A:24:21:FF:87:58:F5:83:01:61

            X509v3 Basic Constraints: 
                CA:TRUE
    Signature Algorithm: sha256WithRSAEncryption
         62:1b:26:2d:b0:f1:e7:d4:53:34:5f:09:9d:a9:7f:5e:cf:74:
         16:ab:f8:44:a4:26:3e:d8:d6:33:4f:75:8a:82:8d:b5:5f:1f:
         81:b1:cc:e8:24:d3:69:53:86:a8:44:6c:52:c6:d2:47:85:0b:
         72:be:51:21:ee:4f:13:a3:c2:eb:bd:c7:be:12:da:ad:b6:51:
         f9:d8:b0:47:9d:b8:ed:a8:e7:0d:53:e9:2c:f0:0a:86:99:7c:
         da:4c:b8:f2:fb:87:30:1a:53:fa:e2:eb:27:f4:81:70:9b:84:
         6b:4f:76:9b:c9:80:03:8a:49:b0:4c:6a:d1:b9:b2:01:24:e0:
         4a:ad:aa:d6:73:3e:92:fe:47:d5:92:cd:f8:8e:50:24:5a:91:
         03:0a:71:53:02:7a:e1:64:c9:07:c2:6f:e2:15:7c:91:96:8a:
         7a:e2:80:64:38:72:d9:e6:f5:9a:0d:a0:a7:94:67:74:26:65:
         fe:d0:3e:f5:3f:21:ba:46:82:cb:da:a4:8a:1f:52:b0:a6:fd:
         0e:ec:2f:b8:c0:b8:a3:e1:e9:03:79:bc:13:91:15:eb:21:3c:
         b3:75:23:fd:9d:ce:93:4a:8b:db:59:b6:75:7b:10:a0:d6:1a:
         60:28:8b:98:43:64:cb:62:2d:1e:03:0f:34:99:2d:60:23:2b:
         a5:5a:68:f8
-----BEGIN CERTIFICATE-----
MIIC/zCCAeegAwIBAgIJAK+XoXiZkaSoMA0GCSqGSIb3DQEBCwUAMBYxFDASBgNV
BAMMC0NBIE1PRU1BTTEzMB4XDTE4MDEyNjEwMjQyNVoXDTE5MDEyNjEwMjQyNVow
FjEUMBIGA1UEAwwLQ0EgTU9FTUFNMTMwggEiMA0GCSqGSIb3DQEBAQUAA4IBDwAw
ggEKAoIBAQDFCx9HEy7uOAA5qIshyo5XhQDerflmHLYxXHYO6vPAFHR4qsq75aKt
L1Ne+7ywfzEV59S0KUzAsiypemg8SShYevWn4u71vU5+gSoIadKwhwB2vx02A3oY
wb2rldq8k88UsuNpg8gCz7jS6S9nXCZj1SEGcpHknbGngJ6wcStjoPMPe0lxGvpJ
XjKDy7hrR9p5Jxrd/2w/kSBhlL76U21dzPFUqSNXpeEgih8luZckvFRhYlnbdRfH
3H6b4A+EbWhC9QZQrkx+y9TeYDnz2zSjmIKWoHzdMvlK7mThLcEHu8vN5rVI6hIk
nbOkS7h/yFiMk8t6LWV7FOAZ8WM8/VobAgMBAAGjUDBOMB0GA1UdDgQWBBRnQeEH
l4Kxzub4miQh/4dY9YMBYTAfBgNVHSMEGDAWgBRnQeEHl4Kxzub4miQh/4dY9YMB
YTAMBgNVHRMEBTADAQH/MA0GCSqGSIb3DQEBCwUAA4IBAQBiGyYtsPHn1FM0Xwmd
qX9ez3QWq/hEpCY+2NYzT3WKgo21Xx+BsczoJNNpU4aoRGxSxtJHhQtyvlEh7k8T
o8Lrvce+EtqttlH52LBHnbjtqOcNU+ks8AqGmXzaTLjy+4cwGlP64usn9IFwm4Rr
T3abyYADikmwTGrRubIBJOBKrarWcz6S/kfVks34jlAkWpEDCnFTAnrhZMkHwm/i
FXyRlop64oBkOHLZ5vWaDaCnlGd0JmX+0D71PyG6RoLL2qSKH1Kwpv0O7C+4wLij
4ekDebwTkRXrITyzdSP9nc6TSovbWbZ1exCg1hpgKIuYQ2TLYi0eAw80mS1gIyul
Wmj4
-----END CERTIFICATE-----
