Certificate:
    Data:
        Version: 3 (0x2)
        Serial Number: 12787075382549472244 (0xb174d14fc500e3f4)
    Signature Algorithm: sha256WithRSAEncryption
        Issuer: CN=CA GREFLM13
        Validity
            Not Before: Jan 26 10:35:53 2018 GMT
            Not After : Jan 24 10:35:53 2028 GMT
        Subject: CN=Server-GREFLM13
        Subject Public Key Info:
            Public Key Algorithm: rsaEncryption
                Public-Key: (2048 bit)
                Modulus:
                    00:e3:ad:cb:b9:1e:9f:af:76:1c:ea:71:59:cc:fd:
                    27:bf:a1:08:cf:cc:73:6c:8f:66:49:82:fc:ea:a6:
                    f1:c3:5d:0e:de:24:f5:e1:2c:06:19:88:94:92:9e:
                    83:45:64:b6:87:73:07:ca:24:43:35:de:24:b0:ab:
                    0a:3d:34:92:e4:d0:d9:f9:19:58:05:79:6d:80:28:
                    2b:ff:bb:f1:70:26:41:d1:c8:5c:6f:79:f9:ba:b5:
                    4b:55:48:a5:85:80:dd:b8:3a:33:61:73:f0:11:bd:
                    7e:02:b2:0f:cd:e5:cb:5a:68:83:89:04:da:eb:99:
                    70:1c:48:06:aa:67:f5:88:73:87:f8:53:98:b4:83:
                    f5:41:1d:86:5a:f2:ce:d7:1d:b2:65:37:d0:f5:dd:
                    41:88:40:91:de:5c:8e:c3:f9:a7:09:57:a4:9f:01:
                    55:c6:66:e6:35:cb:fb:10:7c:aa:fd:47:b6:73:b9:
                    f6:cc:63:ee:ae:a9:d0:00:12:be:e4:d6:a0:ab:01:
                    5f:5c:ec:b2:b6:a5:80:42:28:f4:6a:c2:6c:2b:ea:
                    62:4c:09:73:cb:75:df:6f:c7:7c:01:9a:2c:e5:d6:
                    eb:c0:08:29:5c:1b:ac:68:94:d0:d7:61:24:55:cf:
                    85:30:aa:98:68:8c:0d:c5:6b:24:5c:28:ac:c2:65:
                    06:4d
                Exponent: 65537 (0x10001)
        X509v3 extensions:
            X509v3 Basic Constraints: 
                CA:FALSE
            Netscape Comment: 
                OpenSSL Generated Certificate
            X509v3 Subject Key Identifier: 
                9B:EC:5A:C3:AB:C9:E7:F9:2D:17:80:41:D6:ED:A2:CC:DB:0C:F5:EE
            X509v3 Authority Key Identifier: 
                keyid:61:62:46:84:3D:D4:86:B2:87:82:B5:BB:4A:1B:56:31:47:01:B7:AE

    Signature Algorithm: sha256WithRSAEncryption
         1f:37:af:91:73:74:fa:e9:fd:d4:5f:ff:fa:66:d8:bf:b9:16:
         8a:54:9c:e4:cd:bf:80:7c:87:ff:c4:d2:13:31:8e:cb:74:25:
         ab:32:02:e5:2c:b2:cd:74:20:d7:87:e4:f2:04:d7:aa:37:e0:
         85:d1:f1:af:18:6d:e8:95:61:62:24:e1:09:f0:c0:9f:15:a9:
         fd:1c:d2:59:ae:93:a8:9b:e7:41:11:41:39:e0:d1:93:75:bb:
         45:53:28:88:30:9e:b3:d5:c3:6e:9a:ee:e2:4b:29:92:ed:ce:
         c5:35:0b:cf:b0:19:25:87:0c:e3:99:54:f3:1e:c6:c2:42:63:
         38:c0:45:4b:04:a8:21:74:89:8c:c2:b4:2e:02:55:c7:46:21:
         54:c4:c4:8c:a3:42:e9:9e:3d:89:45:82:45:1b:7e:59:46:c3:
         15:ee:fe:c9:12:bb:57:c2:b8:96:35:dd:a7:ff:f9:23:17:25:
         f5:00:37:1d:10:ba:f1:a6:d6:9f:08:8c:8a:c4:5a:d8:9b:cc:
         51:e9:8d:48:0d:c1:33:87:da:f1:c3:66:6c:32:17:fb:19:b5:
         56:e7:7e:d7:b1:59:e1:d8:97:5d:08:f7:c7:b6:e6:a5:37:56:
         72:70:65:7d:8c:8e:03:98:af:fe:26:0c:58:16:a5:e1:8e:3f:
         d4:b9:e5:e5
-----BEGIN CERTIFICATE-----
MIIDLjCCAhagAwIBAgIJALF00U/FAOP0MA0GCSqGSIb3DQEBCwUAMBYxFDASBgNV
BAMMC0NBIEdSRUZMTTEzMB4XDTE4MDEyNjEwMzU1M1oXDTI4MDEyNDEwMzU1M1ow
GjEYMBYGA1UEAwwPU2VydmVyLUdSRUZMTTEzMIIBIjANBgkqhkiG9w0BAQEFAAOC
AQ8AMIIBCgKCAQEA463LuR6fr3Yc6nFZzP0nv6EIz8xzbI9mSYL86qbxw10O3iT1
4SwGGYiUkp6DRWS2h3MHyiRDNd4ksKsKPTSS5NDZ+RlYBXltgCgr/7vxcCZB0chc
b3n5urVLVUilhYDduDozYXPwEb1+ArIPzeXLWmiDiQTa65lwHEgGqmf1iHOH+FOY
tIP1QR2GWvLO1x2yZTfQ9d1BiECR3lyOw/mnCVeknwFVxmbmNcv7EHyq/Ue2c7n2
zGPurqnQABK+5NagqwFfXOyytqWAQij0asJsK+piTAlzy3Xfb8d8AZos5dbrwAgp
XBusaJTQ12EkVc+FMKqYaIwNxWskXCiswmUGTQIDAQABo3sweTAJBgNVHRMEAjAA
MCwGCWCGSAGG+EIBDQQfFh1PcGVuU1NMIEdlbmVyYXRlZCBDZXJ0aWZpY2F0ZTAd
BgNVHQ4EFgQUm+xaw6vJ5/ktF4BB1u2izNsM9e4wHwYDVR0jBBgwFoAUYWJGhD3U
hrKHgrW7ShtWMUcBt64wDQYJKoZIhvcNAQELBQADggEBAB83r5FzdPrp/dRf//pm
2L+5FopUnOTNv4B8h//E0hMxjst0JasyAuUsss10INeH5PIE16o34IXR8a8YbeiV
YWIk4QnwwJ8Vqf0c0lmuk6ib50ERQTng0ZN1u0VTKIgwnrPVw26a7uJLKZLtzsU1
C8+wGSWHDOOZVPMexsJCYzjARUsEqCF0iYzCtC4CVcdGIVTExIyjQumePYlFgkUb
fllGwxXu/skSu1fCuJY13af/+SMXJfUANx0QuvGm1p8IjIrEWtibzFHpjUgNwTOH
2vHDZmwyF/sZtVbnftexWeHYl10I98e25qU3VnJwZX2MjgOYr/4mDFgWpeGOP9S5
5eU=
-----END CERTIFICATE-----
