Certificate:
    Data:
        Version: 3 (0x2)
        Serial Number: 18359469932825330208 (0xfec9f0a19a84c220)
    Signature Algorithm: sha256WithRSAEncryption
        Issuer: CN=CA finmam13
        Validity
            Not Before: Jan 26 10:37:50 2018 GMT
            Not After : Jan 26 10:37:50 2019 GMT
        Subject: CN=server-finmam13
        Subject Public Key Info:
            Public Key Algorithm: rsaEncryption
                Public-Key: (2048 bit)
                Modulus:
                    00:df:be:3c:d3:88:de:36:87:33:56:4d:85:ff:ce:
                    55:b5:9e:16:47:83:04:ce:09:95:75:94:0c:1c:0e:
                    09:bb:e1:c2:d6:6f:3a:62:66:bb:f1:dd:28:f6:54:
                    07:63:1c:05:36:b7:0c:e0:a8:54:4f:75:b5:db:04:
                    61:77:39:0b:68:a1:8c:5f:13:e6:67:b1:21:ba:d5:
                    5e:9e:12:b4:ed:35:ad:c5:0d:33:d7:2c:28:d7:f7:
                    37:5e:79:65:f8:32:50:61:be:23:ae:c8:51:4f:c8:
                    f7:00:62:62:9c:81:0c:30:81:94:16:13:a3:0d:32:
                    a8:2a:87:8d:d7:99:ea:51:47:c0:03:60:0b:64:60:
                    10:6b:c0:05:94:4d:35:68:3e:33:98:70:22:a2:51:
                    b7:9e:54:d6:df:a9:81:13:71:5e:b2:b4:a7:c1:7d:
                    75:6e:75:c8:26:df:e3:39:57:84:1a:63:cc:14:23:
                    8d:79:c5:1b:4c:1a:58:4a:a2:70:ec:e6:3c:7f:b4:
                    1a:41:6e:6e:d1:ad:12:49:8c:4d:60:de:f2:a5:3d:
                    b6:dc:b9:a4:ea:eb:76:e3:22:5a:4d:ed:54:96:ba:
                    52:5b:62:30:9d:b5:45:fa:f8:42:37:16:19:2e:43:
                    74:9d:26:96:bc:71:b8:20:a3:2b:ed:b9:cd:b1:a7:
                    b1:ad
                Exponent: 65537 (0x10001)
        X509v3 extensions:
            X509v3 Basic Constraints: 
                CA:FALSE
            Netscape Comment: 
                OpenSSL Generated Certificate
            X509v3 Subject Key Identifier: 
                90:BB:0D:BC:CC:0D:2D:BB:A8:80:BB:21:F7:2D:B7:05:5E:90:FE:09
            X509v3 Authority Key Identifier: 
                keyid:29:53:F7:E8:49:47:72:9E:F5:C1:85:14:58:42:3C:63:03:C6:FD:A9

    Signature Algorithm: sha256WithRSAEncryption
         15:ff:58:ae:73:92:be:62:ca:62:06:a0:3a:49:ac:d0:97:f2:
         5c:2a:6d:a9:08:73:23:5d:0d:17:6f:b7:ae:35:d5:f8:26:d8:
         41:6f:17:61:27:bc:cb:ff:72:c3:26:fc:53:a6:3b:0e:8f:d1:
         58:59:c8:1b:73:47:06:01:0f:f2:89:8f:59:37:d4:6e:74:85:
         d2:25:e8:76:1d:dd:b4:de:b2:3a:bd:c3:14:98:a0:40:dc:07:
         2a:85:08:75:cf:64:e7:f5:1a:86:75:a1:fb:45:ed:10:38:e0:
         71:9f:98:80:b5:80:2e:a2:29:8d:61:13:ae:fa:c9:23:fa:02:
         f7:b7:05:4b:f4:a2:0b:28:a1:ca:36:53:80:0c:2a:6b:3b:72:
         71:3f:ad:e8:19:cf:fb:d5:84:ca:cb:c5:88:b7:28:40:2f:a3:
         a2:b6:82:c3:d2:43:c6:43:b4:2a:4f:64:cd:9a:9e:42:57:04:
         e1:07:4e:f0:26:15:37:cb:b6:79:7b:be:27:5b:d2:44:f3:74:
         f7:4d:1d:77:66:58:4b:9b:0b:4b:da:b3:91:2f:93:4d:89:b9:
         b5:a3:8a:ff:1b:72:eb:d6:02:fe:2f:6b:68:51:2e:3d:0d:eb:
         99:9e:c6:4e:40:6b:25:b4:73:b1:fa:8d:d9:fb:80:8e:22:53:
         8a:19:b4:7b
-----BEGIN CERTIFICATE-----
MIIDLjCCAhagAwIBAgIJAP7J8KGahMIgMA0GCSqGSIb3DQEBCwUAMBYxFDASBgNV
BAMMC0NBIGZpbm1hbTEzMB4XDTE4MDEyNjEwMzc1MFoXDTE5MDEyNjEwMzc1MFow
GjEYMBYGA1UEAwwPc2VydmVyLWZpbm1hbTEzMIIBIjANBgkqhkiG9w0BAQEFAAOC
AQ8AMIIBCgKCAQEA374804jeNoczVk2F/85VtZ4WR4MEzgmVdZQMHA4Ju+HC1m86
Yma78d0o9lQHYxwFNrcM4KhUT3W12wRhdzkLaKGMXxPmZ7EhutVenhK07TWtxQ0z
1ywo1/c3Xnll+DJQYb4jrshRT8j3AGJinIEMMIGUFhOjDTKoKoeN15nqUUfAA2AL
ZGAQa8AFlE01aD4zmHAiolG3nlTW36mBE3FesrSnwX11bnXIJt/jOVeEGmPMFCON
ecUbTBpYSqJw7OY8f7QaQW5u0a0SSYxNYN7ypT223Lmk6ut24yJaTe1UlrpSW2Iw
nbVF+vhCNxYZLkN0nSaWvHG4IKMr7bnNsaexrQIDAQABo3sweTAJBgNVHRMEAjAA
MCwGCWCGSAGG+EIBDQQfFh1PcGVuU1NMIEdlbmVyYXRlZCBDZXJ0aWZpY2F0ZTAd
BgNVHQ4EFgQUkLsNvMwNLbuogLsh9y23BV6Q/gkwHwYDVR0jBBgwFoAUKVP36ElH
cp71wYUUWEI8YwPG/akwDQYJKoZIhvcNAQELBQADggEBABX/WK5zkr5iymIGoDpJ
rNCX8lwqbakIcyNdDRdvt6411fgm2EFvF2EnvMv/csMm/FOmOw6P0VhZyBtzRwYB
D/KJj1k31G50hdIl6HYd3bTesjq9wxSYoEDcByqFCHXPZOf1GoZ1oftF7RA44HGf
mIC1gC6iKY1hE676ySP6Ave3BUv0ogsooco2U4AMKms7cnE/regZz/vVhMrLxYi3
KEAvo6K2gsPSQ8ZDtCpPZM2ankJXBOEHTvAmFTfLtnl7vidb0kTzdPdNHXdmWEub
C0vas5Evk02JubWjiv8bcuvWAv4va2hRLj0N65mexk5AayW0c7H6jdn7gI4iU4oZ
tHs=
-----END CERTIFICATE-----
