Certificate:
    Data:
        Version: 3 (0x2)
        Serial Number: 18359469932825330207 (0xfec9f0a19a84c21f)
    Signature Algorithm: sha256WithRSAEncryption
        Issuer: CN=CA finmam13
        Validity
            Not Before: Jan 26 10:24:09 2018 GMT
            Not After : Jan 26 10:24:09 2019 GMT
        Subject: CN=CA finmam13
        Subject Public Key Info:
            Public Key Algorithm: rsaEncryption
                Public-Key: (2048 bit)
                Modulus:
                    00:f9:bf:6f:5f:53:70:eb:c1:1c:af:f7:51:86:f1:
                    80:65:5e:79:54:aa:f9:2f:fc:45:14:09:c5:5c:2c:
                    68:87:39:21:91:fd:aa:ea:7e:f7:c3:d5:65:af:62:
                    cb:80:09:2b:a8:bb:62:ae:6d:24:7b:cc:30:80:d5:
                    65:06:85:0e:a0:7c:9f:8c:37:8f:74:55:56:a1:96:
                    85:d7:b2:6d:b8:1d:91:ff:45:55:b7:0f:92:80:de:
                    03:c1:0e:57:9b:57:93:3f:18:ef:75:bc:c4:89:29:
                    d0:6d:59:48:2a:27:20:da:80:54:f9:f6:b8:4e:04:
                    b0:e9:87:1f:98:ac:28:90:79:e5:57:0f:5f:0a:99:
                    71:2c:ba:c6:47:c1:d5:79:5e:39:96:48:7b:89:5a:
                    e4:71:9a:f8:93:4b:dc:97:1f:1b:ff:6c:8f:7e:05:
                    74:6f:3b:5a:3e:4c:ac:85:06:5c:a8:02:8b:a9:a1:
                    14:b4:66:9f:28:12:c2:ab:e6:f6:ee:c6:71:00:57:
                    bd:7a:16:bc:0d:56:91:30:7f:29:0f:ad:41:0d:5b:
                    b3:df:5b:52:8c:34:cb:e7:dc:da:2f:69:5e:eb:7b:
                    56:01:d2:8b:35:2b:ab:0e:98:bd:27:38:36:fa:e7:
                    f0:79:9e:9b:b7:a0:d3:fd:54:0e:98:76:54:58:d7:
                    1c:29
                Exponent: 65537 (0x10001)
        X509v3 extensions:
            X509v3 Subject Key Identifier: 
                29:53:F7:E8:49:47:72:9E:F5:C1:85:14:58:42:3C:63:03:C6:FD:A9
            X509v3 Authority Key Identifier: 
                keyid:29:53:F7:E8:49:47:72:9E:F5:C1:85:14:58:42:3C:63:03:C6:FD:A9

            X509v3 Basic Constraints: 
                CA:TRUE
    Signature Algorithm: sha256WithRSAEncryption
         ac:20:1b:3f:fe:02:9a:5b:c8:16:e2:dc:b8:fe:8d:95:09:0c:
         9b:9a:fc:56:4f:fe:8d:91:33:78:cf:82:e3:8d:84:4a:ed:42:
         47:40:70:59:63:05:fe:26:ab:31:4f:80:04:8b:b5:d0:d5:80:
         22:da:a5:fc:a6:1a:d1:b5:06:bd:10:ed:b7:73:62:96:39:22:
         7b:d6:95:6e:62:ae:23:9a:d0:8b:8e:93:62:e0:ec:b8:ec:24:
         df:e5:dd:3d:ec:c5:2f:ae:eb:cd:04:cc:f3:73:ef:9e:80:7c:
         8f:67:09:ed:4c:6a:d7:7c:3a:de:b2:86:39:c7:74:92:ae:e6:
         46:2e:4f:78:be:22:da:3f:2c:31:02:92:09:8b:73:a1:5e:48:
         26:db:01:00:80:71:74:a1:18:57:62:29:a1:69:84:b3:6c:57:
         cd:a7:98:1b:bb:81:f9:46:18:a8:fb:9b:83:0f:a6:e0:9f:15:
         88:d9:6b:5a:4e:f9:82:ba:69:ed:cc:70:d4:28:06:2e:d5:22:
         f2:f5:f9:8b:57:d1:90:b7:c3:cb:e3:fa:76:73:66:ac:7f:d9:
         84:44:23:4a:51:db:c1:8b:55:38:de:1e:b9:1e:8d:24:da:d9:
         bf:cb:2e:a9:47:bc:12:28:ad:89:bd:3b:2b:33:79:be:bf:92:
         29:71:23:06
-----BEGIN CERTIFICATE-----
MIIC/zCCAeegAwIBAgIJAP7J8KGahMIfMA0GCSqGSIb3DQEBCwUAMBYxFDASBgNV
BAMMC0NBIGZpbm1hbTEzMB4XDTE4MDEyNjEwMjQwOVoXDTE5MDEyNjEwMjQwOVow
FjEUMBIGA1UEAwwLQ0EgZmlubWFtMTMwggEiMA0GCSqGSIb3DQEBAQUAA4IBDwAw
ggEKAoIBAQD5v29fU3DrwRyv91GG8YBlXnlUqvkv/EUUCcVcLGiHOSGR/arqfvfD
1WWvYsuACSuou2KubSR7zDCA1WUGhQ6gfJ+MN490VVahloXXsm24HZH/RVW3D5KA
3gPBDlebV5M/GO91vMSJKdBtWUgqJyDagFT59rhOBLDphx+YrCiQeeVXD18KmXEs
usZHwdV5XjmWSHuJWuRxmviTS9yXHxv/bI9+BXRvO1o+TKyFBlyoAoupoRS0Zp8o
EsKr5vbuxnEAV716FrwNVpEwfykPrUENW7PfW1KMNMvn3NovaV7re1YB0os1K6sO
mL0nODb65/B5npu3oNP9VA6YdlRY1xwpAgMBAAGjUDBOMB0GA1UdDgQWBBQpU/fo
SUdynvXBhRRYQjxjA8b9qTAfBgNVHSMEGDAWgBQpU/foSUdynvXBhRRYQjxjA8b9
qTAMBgNVHRMEBTADAQH/MA0GCSqGSIb3DQEBCwUAA4IBAQCsIBs//gKaW8gW4ty4
/o2VCQybmvxWT/6NkTN4z4LjjYRK7UJHQHBZYwX+JqsxT4AEi7XQ1YAi2qX8phrR
tQa9EO23c2KWOSJ71pVuYq4jmtCLjpNi4Oy47CTf5d097MUvruvNBMzzc++egHyP
ZwntTGrXfDresoY5x3SSruZGLk94viLaPywxApIJi3OhXkgm2wEAgHF0oRhXYimh
aYSzbFfNp5gbu4H5Rhio+5uDD6bgnxWI2WtaTvmCumntzHDUKAYu1SLy9fmLV9GQ
t8PL4/p2c2asf9mERCNKUdvBi1U43h65Ho0k2tm/yy6pR7wSKK2JvTsrM3m+v5Ip
cSMG
-----END CERTIFICATE-----
