Certificate:
    Data:
        Version: 3 (0x2)
        Serial Number: 10146446511344746758 (0x8ccf6b5809348106)
    Signature Algorithm: sha256WithRSAEncryption
        Issuer: CN=CA frelum13
        Validity
            Not Before: Jan 26 10:25:51 2018 GMT
            Not After : Jan 26 10:25:51 2019 GMT
        Subject: CN=CA frelum13
        Subject Public Key Info:
            Public Key Algorithm: rsaEncryption
                Public-Key: (2048 bit)
                Modulus:
                    00:d1:86:b9:01:b5:c9:55:a1:b8:1d:8d:e7:85:f3:
                    64:09:16:2c:15:38:fe:2d:01:87:3c:4c:90:96:27:
                    de:af:f1:14:12:ab:5d:e1:bd:c2:d6:aa:2f:da:05:
                    89:e4:57:cf:33:87:a6:09:da:8d:63:5f:92:91:98:
                    b1:61:00:56:62:5d:66:96:ae:5b:8d:d0:32:97:5c:
                    58:a5:d2:fc:e7:18:d3:6c:91:c9:e3:97:c3:fe:61:
                    73:33:eb:24:fe:2e:85:ec:76:c8:c7:ea:af:74:e1:
                    1a:72:1f:4a:ac:a1:01:84:ba:af:0d:41:e8:b3:59:
                    4c:24:c5:2a:5d:7b:1f:60:19:09:4f:20:91:f7:eb:
                    d1:a3:04:72:57:a7:1d:a8:ce:72:af:20:1f:74:5a:
                    94:f4:96:9f:94:59:89:ad:e5:f8:8c:52:f9:5a:8d:
                    0f:be:99:58:34:3e:80:1f:6e:21:14:e3:56:e4:a6:
                    22:5b:b2:0b:79:26:04:5d:45:9a:74:d1:c5:09:07:
                    f1:45:e4:a9:44:3f:be:fa:01:39:ec:dc:dc:69:c4:
                    52:cc:9f:9c:4e:f0:96:f0:24:e6:fd:7b:5e:e7:95:
                    75:c8:e2:34:d7:e1:1e:11:a6:7e:0d:0c:38:a0:9b:
                    06:a5:14:bd:02:6f:73:ec:37:05:e0:a7:30:f1:44:
                    f9:7d
                Exponent: 65537 (0x10001)
        X509v3 extensions:
            X509v3 Subject Key Identifier: 
                3F:D3:1C:76:DD:E1:3E:76:31:9B:3F:3E:5F:B9:28:79:CC:68:CA:F7
            X509v3 Authority Key Identifier: 
                keyid:3F:D3:1C:76:DD:E1:3E:76:31:9B:3F:3E:5F:B9:28:79:CC:68:CA:F7

            X509v3 Basic Constraints: 
                CA:TRUE
    Signature Algorithm: sha256WithRSAEncryption
         1e:f0:d1:78:3a:73:ef:df:ef:52:af:ae:ae:8e:0a:15:d5:70:
         b9:f6:31:a3:09:98:76:56:9a:23:8d:d7:d7:5a:9f:0b:7a:d9:
         e8:19:3e:19:3c:89:8d:ae:b8:68:23:1b:7a:86:64:81:6f:3f:
         9e:3d:39:7e:7a:ce:09:b8:26:36:95:98:9e:e2:8b:35:16:ce:
         2e:8f:d8:82:bc:6e:5c:f2:9d:80:39:2f:3f:8b:44:7b:fa:5c:
         b1:48:72:db:5d:b1:e6:0a:c1:6f:f9:1e:c8:ad:b7:27:e1:c9:
         c2:a0:af:29:58:e2:f2:8c:31:00:1a:e2:fb:58:35:fb:5e:9d:
         fb:2c:c9:ca:0b:a4:7e:32:18:06:5e:ed:30:af:12:59:31:ac:
         2a:14:28:23:cc:5f:f0:a1:61:0b:f1:eb:be:94:d5:81:84:f6:
         46:87:a5:9f:a2:7b:8b:05:2b:83:31:ff:e7:4e:9a:9d:ac:5d:
         99:02:f9:16:bb:81:1f:41:3b:0c:89:ef:22:74:be:5d:6a:af:
         67:00:da:c7:51:8f:5b:0f:77:65:20:9a:ea:8b:0c:f9:84:60:
         64:95:31:ff:ca:4d:83:84:0d:37:66:50:f5:36:c7:e1:df:58:
         70:80:6f:ec:ec:5c:85:8b:1a:c1:b9:12:2c:0d:da:92:c7:31:
         8e:db:0a:14
-----BEGIN CERTIFICATE-----
MIIC/zCCAeegAwIBAgIJAIzPa1gJNIEGMA0GCSqGSIb3DQEBCwUAMBYxFDASBgNV
BAMMC0NBIGZyZWx1bTEzMB4XDTE4MDEyNjEwMjU1MVoXDTE5MDEyNjEwMjU1MVow
FjEUMBIGA1UEAwwLQ0EgZnJlbHVtMTMwggEiMA0GCSqGSIb3DQEBAQUAA4IBDwAw
ggEKAoIBAQDRhrkBtclVobgdjeeF82QJFiwVOP4tAYc8TJCWJ96v8RQSq13hvcLW
qi/aBYnkV88zh6YJ2o1jX5KRmLFhAFZiXWaWrluN0DKXXFil0vznGNNskcnjl8P+
YXMz6yT+LoXsdsjH6q904RpyH0qsoQGEuq8NQeizWUwkxSpdex9gGQlPIJH369Gj
BHJXpx2oznKvIB90WpT0lp+UWYmt5fiMUvlajQ++mVg0PoAfbiEU41bkpiJbsgt5
JgRdRZp00cUJB/FF5KlEP776ATns3NxpxFLMn5xO8JbwJOb9e17nlXXI4jTX4R4R
pn4NDDigmwalFL0Cb3PsNwXgpzDxRPl9AgMBAAGjUDBOMB0GA1UdDgQWBBQ/0xx2
3eE+djGbPz5fuSh5zGjK9zAfBgNVHSMEGDAWgBQ/0xx23eE+djGbPz5fuSh5zGjK
9zAMBgNVHRMEBTADAQH/MA0GCSqGSIb3DQEBCwUAA4IBAQAe8NF4OnPv3+9Sr66u
jgoV1XC59jGjCZh2VpojjdfXWp8LetnoGT4ZPImNrrhoIxt6hmSBbz+ePTl+es4J
uCY2lZie4os1Fs4uj9iCvG5c8p2AOS8/i0R7+lyxSHLbXbHmCsFv+R7Irbcn4cnC
oK8pWOLyjDEAGuL7WDX7Xp37LMnKC6R+MhgGXu0wrxJZMawqFCgjzF/woWEL8eu+
lNWBhPZGh6WfonuLBSuDMf/nTpqdrF2ZAvkWu4EfQTsMie8idL5daq9nANrHUY9b
D3dlIJrqiwz5hGBklTH/yk2DhA03ZlD1Nsfh31hwgG/s7FyFixrBuRIsDdqSxzGO
2woU
-----END CERTIFICATE-----
