Certificate:
    Data:
        Version: 3 (0x2)
        Serial Number: 12110755185182919931 (0xa8120bace68c4cfb)
    Signature Algorithm: sha256WithRSAEncryption
        Issuer: CN=CA harflm13
        Validity
            Not Before: Jan 26 10:28:34 2018 GMT
            Not After : Jan 26 10:28:34 2019 GMT
        Subject: CN=CA harflm13
        Subject Public Key Info:
            Public Key Algorithm: rsaEncryption
                Public-Key: (2048 bit)
                Modulus:
                    00:ec:97:3a:01:98:19:a4:47:05:71:74:46:29:91:
                    26:56:4a:f4:93:0d:30:8c:8c:92:05:93:9a:8a:ba:
                    58:c4:2f:bc:9a:1a:ee:73:b1:0c:34:f4:59:dc:56:
                    18:5e:cf:f2:4c:2a:1a:da:bd:38:d5:96:d9:3f:d3:
                    a5:27:ef:dc:87:f9:96:87:4b:4b:ef:04:4a:fb:11:
                    a6:65:82:35:9f:ac:00:59:a7:77:d3:50:08:98:6c:
                    04:92:81:f7:00:c5:c7:60:e9:df:05:ac:e1:9d:e7:
                    2e:9e:a4:d7:11:a8:b7:fa:3a:bc:68:d5:53:62:25:
                    c8:20:f9:ad:0a:6a:64:38:cb:b4:a4:63:71:76:78:
                    9d:21:1b:57:bf:06:94:4d:02:38:88:e5:ca:41:11:
                    31:ee:50:c5:29:4e:8b:62:bf:88:9d:6d:ec:83:f1:
                    ac:22:5f:a6:0e:9b:a5:37:52:5c:ce:85:68:ed:28:
                    d5:78:46:90:7c:3c:b6:ea:ff:d5:a1:2f:23:55:ee:
                    01:09:0c:ac:bc:90:0d:4c:9d:06:a0:d0:b7:d0:ff:
                    55:49:7a:d3:53:d1:3d:ec:38:fa:23:07:2f:13:0d:
                    d4:55:e0:62:fc:78:c4:9a:27:7e:93:82:18:49:eb:
                    b1:a1:74:53:68:3f:1b:d7:4a:7e:c3:87:72:b8:90:
                    ff:af
                Exponent: 65537 (0x10001)
        X509v3 extensions:
            X509v3 Subject Key Identifier: 
                06:E8:0D:67:91:E9:6E:56:06:98:73:20:13:89:A1:34:4B:98:83:5F
            X509v3 Authority Key Identifier: 
                keyid:06:E8:0D:67:91:E9:6E:56:06:98:73:20:13:89:A1:34:4B:98:83:5F

            X509v3 Basic Constraints: 
                CA:TRUE
    Signature Algorithm: sha256WithRSAEncryption
         c5:68:fb:26:dd:30:e1:1e:9e:fd:4e:b6:ee:98:ab:f3:33:c8:
         ff:8d:95:69:51:9f:0d:5c:ff:53:77:7b:25:32:1d:db:39:7b:
         83:9f:6f:68:33:04:cf:71:66:50:03:73:f5:4a:6a:53:7d:c3:
         39:60:70:0d:d4:fc:79:7a:67:21:c6:45:ae:47:60:1c:0e:df:
         6a:99:a7:78:d8:58:9e:6a:3b:5f:ea:13:6e:b1:c0:be:de:ed:
         f9:9a:2d:73:a0:2b:ab:d4:c3:29:d1:17:b0:c6:e3:13:01:ee:
         ef:ce:16:83:1f:08:cb:bc:5a:ec:75:f7:fa:1e:97:ca:79:99:
         ef:66:e4:c3:4d:58:6f:d4:8f:23:7d:da:38:47:54:6f:0b:b9:
         c0:82:f4:38:a4:53:55:e0:8d:65:ee:1a:41:1d:60:2c:9f:fc:
         9d:84:b3:ec:8c:b9:f0:78:c8:5f:ca:f3:56:6e:a2:c6:e8:6f:
         b2:4c:b9:ff:76:13:bd:59:aa:af:5b:4d:9b:76:16:82:b3:62:
         24:0a:36:0e:c1:dd:f3:35:01:12:ed:40:0c:b1:76:cb:f3:33:
         2c:35:3c:0f:78:62:ea:1d:34:47:85:26:d3:0f:92:78:d4:f3:
         d0:5f:ed:d8:33:51:8e:85:d8:b6:00:b8:94:76:82:3d:d9:c3:
         7c:ba:1f:94
-----BEGIN CERTIFICATE-----
MIIC/zCCAeegAwIBAgIJAKgSC6zmjEz7MA0GCSqGSIb3DQEBCwUAMBYxFDASBgNV
BAMMC0NBIGhhcmZsbTEzMB4XDTE4MDEyNjEwMjgzNFoXDTE5MDEyNjEwMjgzNFow
FjEUMBIGA1UEAwwLQ0EgaGFyZmxtMTMwggEiMA0GCSqGSIb3DQEBAQUAA4IBDwAw
ggEKAoIBAQDslzoBmBmkRwVxdEYpkSZWSvSTDTCMjJIFk5qKuljEL7yaGu5zsQw0
9FncVhhez/JMKhravTjVltk/06Un79yH+ZaHS0vvBEr7EaZlgjWfrABZp3fTUAiY
bASSgfcAxcdg6d8FrOGd5y6epNcRqLf6Orxo1VNiJcgg+a0KamQ4y7SkY3F2eJ0h
G1e/BpRNAjiI5cpBETHuUMUpTotiv4idbeyD8awiX6YOm6U3UlzOhWjtKNV4RpB8
PLbq/9WhLyNV7gEJDKy8kA1MnQag0LfQ/1VJetNT0T3sOPojBy8TDdRV4GL8eMSa
J36TghhJ67GhdFNoPxvXSn7Dh3K4kP+vAgMBAAGjUDBOMB0GA1UdDgQWBBQG6A1n
keluVgaYcyATiaE0S5iDXzAfBgNVHSMEGDAWgBQG6A1nkeluVgaYcyATiaE0S5iD
XzAMBgNVHRMEBTADAQH/MA0GCSqGSIb3DQEBCwUAA4IBAQDFaPsm3TDhHp79Trbu
mKvzM8j/jZVpUZ8NXP9Td3slMh3bOXuDn29oMwTPcWZQA3P1SmpTfcM5YHAN1Px5
emchxkWuR2AcDt9qmad42Fieajtf6hNuscC+3u35mi1zoCur1MMp0RewxuMTAe7v
zhaDHwjLvFrsdff6HpfKeZnvZuTDTVhv1I8jfdo4R1RvC7nAgvQ4pFNV4I1l7hpB
HWAsn/ydhLPsjLnweMhfyvNWbqLG6G+yTLn/dhO9WaqvW02bdhaCs2IkCjYOwd3z
NQES7UAMsXbL8zMsNTwPeGLqHTRHhSbTD5J41PPQX+3YM1GOhdi2ALiUdoI92cN8
uh+U
-----END CERTIFICATE-----
