Certificate:
    Data:
        Version: 3 (0x2)
        Serial Number: 16367933435042425011 (0xe32694bcf6f168b3)
    Signature Algorithm: sha256WithRSAEncryption
        Issuer: CN=CA picdom12
        Validity
            Not Before: Jan 26 10:23:54 2018 GMT
            Not After : Jan 26 10:23:54 2019 GMT
        Subject: CN=CA picdom12
        Subject Public Key Info:
            Public Key Algorithm: rsaEncryption
                Public-Key: (2048 bit)
                Modulus:
                    00:bf:8a:b0:91:84:f7:48:f4:86:1c:5c:57:68:62:
                    09:dc:ca:26:91:e3:31:26:20:c4:11:75:e1:9d:a0:
                    3c:9e:71:fb:02:79:59:0b:5c:37:0a:73:09:26:75:
                    56:f9:46:67:89:55:b4:06:0b:34:a5:ff:e5:bc:33:
                    cb:19:35:0c:d1:a7:3c:7d:66:4a:01:54:1a:17:28:
                    4f:2b:b8:67:61:23:cb:0c:d8:39:fd:b5:d6:40:4b:
                    55:64:41:df:98:a6:43:47:c8:07:1c:fa:1f:c1:b5:
                    4f:bc:40:3b:b1:1a:32:da:25:e2:ee:e7:6b:e0:e4:
                    bf:23:9a:41:83:56:e4:e8:36:12:d0:25:c4:92:91:
                    90:44:fa:6f:87:05:96:cc:4b:a0:3b:64:76:3a:01:
                    80:ca:ad:85:4b:bb:e9:6b:09:98:94:e6:57:b5:c4:
                    b9:c5:d4:25:09:3e:00:44:43:98:07:70:4c:b9:07:
                    0d:5b:8a:48:f8:63:d8:0c:3a:98:1a:50:30:2a:e9:
                    49:42:a0:03:25:5f:2d:f6:90:46:b4:54:d1:5e:fe:
                    df:e0:60:81:6c:89:6c:e1:63:ae:90:8e:cf:61:21:
                    ac:b5:8b:7c:93:b2:ed:5f:63:22:3b:e2:05:96:d8:
                    a8:fc:1e:19:6c:d5:78:13:59:cf:45:c9:05:95:3d:
                    2f:69
                Exponent: 65537 (0x10001)
        X509v3 extensions:
            X509v3 Subject Key Identifier: 
                B4:AD:1E:F4:71:18:53:1E:F0:6E:57:A9:73:ED:E4:A4:34:6A:BC:71
            X509v3 Authority Key Identifier: 
                keyid:B4:AD:1E:F4:71:18:53:1E:F0:6E:57:A9:73:ED:E4:A4:34:6A:BC:71

            X509v3 Basic Constraints: 
                CA:TRUE
    Signature Algorithm: sha256WithRSAEncryption
         49:07:a5:8b:4f:f9:52:bc:94:d5:36:18:d3:77:5b:71:96:30:
         31:50:8e:91:22:17:17:23:dc:1f:54:fc:c1:8c:79:7a:45:82:
         91:e6:50:3c:08:9c:1a:eb:1b:f0:39:17:f3:f3:c6:fb:ff:27:
         50:86:93:4f:11:39:03:22:b6:8e:dc:2a:ad:c3:97:64:24:72:
         27:79:2c:07:45:f5:92:9f:49:33:3f:0b:42:5a:25:10:48:6c:
         c1:19:df:17:df:cb:65:04:86:86:a4:f3:58:43:d2:f2:6a:3c:
         2a:a5:a9:1d:de:af:9c:98:8b:5b:86:e4:3f:c9:5b:bf:17:14:
         17:03:49:6d:4e:a0:3b:6e:d2:0c:bc:94:f7:a8:46:a5:84:82:
         d8:85:1b:05:92:73:68:71:41:f0:e5:60:2f:85:ba:b1:b4:7e:
         2d:bb:42:a9:6f:01:b1:7a:2b:8c:00:94:a2:2a:b7:a8:21:4f:
         cb:98:c5:c8:46:22:f4:16:83:b9:5d:a8:82:09:16:3b:d5:b3:
         72:3c:a3:8a:c1:20:e9:7b:13:33:43:60:1b:bd:ff:fd:3b:55:
         ce:6f:15:5c:a5:f2:8c:b6:1a:62:1f:ab:e5:5d:21:ec:ee:64:
         08:ae:6d:de:35:c3:72:d6:bc:50:0b:74:4c:b8:b1:a2:e3:ff:
         d8:f4:ef:87
-----BEGIN CERTIFICATE-----
MIIC/zCCAeegAwIBAgIJAOMmlLz28WizMA0GCSqGSIb3DQEBCwUAMBYxFDASBgNV
BAMMC0NBIHBpY2RvbTEyMB4XDTE4MDEyNjEwMjM1NFoXDTE5MDEyNjEwMjM1NFow
FjEUMBIGA1UEAwwLQ0EgcGljZG9tMTIwggEiMA0GCSqGSIb3DQEBAQUAA4IBDwAw
ggEKAoIBAQC/irCRhPdI9IYcXFdoYgncyiaR4zEmIMQRdeGdoDyecfsCeVkLXDcK
cwkmdVb5RmeJVbQGCzSl/+W8M8sZNQzRpzx9ZkoBVBoXKE8ruGdhI8sM2Dn9tdZA
S1VkQd+YpkNHyAcc+h/BtU+8QDuxGjLaJeLu52vg5L8jmkGDVuToNhLQJcSSkZBE
+m+HBZbMS6A7ZHY6AYDKrYVLu+lrCZiU5le1xLnF1CUJPgBEQ5gHcEy5Bw1bikj4
Y9gMOpgaUDAq6UlCoAMlXy32kEa0VNFe/t/gYIFsiWzhY66Qjs9hIay1i3yTsu1f
YyI74gWW2Kj8Hhls1XgTWc9FyQWVPS9pAgMBAAGjUDBOMB0GA1UdDgQWBBS0rR70
cRhTHvBuV6lz7eSkNGq8cTAfBgNVHSMEGDAWgBS0rR70cRhTHvBuV6lz7eSkNGq8
cTAMBgNVHRMEBTADAQH/MA0GCSqGSIb3DQEBCwUAA4IBAQBJB6WLT/lSvJTVNhjT
d1txljAxUI6RIhcXI9wfVPzBjHl6RYKR5lA8CJwa6xvwORfz88b7/ydQhpNPETkD
IraO3Cqtw5dkJHIneSwHRfWSn0kzPwtCWiUQSGzBGd8X38tlBIaGpPNYQ9Lyajwq
pakd3q+cmItbhuQ/yVu/FxQXA0ltTqA7btIMvJT3qEalhILYhRsFknNocUHw5WAv
hbqxtH4tu0KpbwGxeiuMAJSiKreoIU/LmMXIRiL0FoO5XaiCCRY71bNyPKOKwSDp
exMzQ2Abvf/9O1XObxVcpfKMthpiH6vlXSHs7mQIrm3eNcNy1rxQC3RMuLGi4//Y
9O+H
-----END CERTIFICATE-----
