Certificate:
    Data:
        Version: 3 (0x2)
        Serial Number: 11096574767093673867 (0x99fef3f5602e6f8b)
    Signature Algorithm: sha256WithRSAEncryption
        Issuer: CN=CA ritmam13
        Validity
            Not Before: Jan 26 10:24:00 2018 GMT
            Not After : Jan 26 10:24:00 2019 GMT
        Subject: CN=CA ritmam13
        Subject Public Key Info:
            Public Key Algorithm: rsaEncryption
                Public-Key: (2048 bit)
                Modulus:
                    00:bd:36:da:cb:11:d0:75:e9:b3:ee:77:58:c8:ed:
                    12:05:78:13:89:ec:6e:e4:e2:8d:d1:38:85:af:e1:
                    f4:08:79:39:29:d5:06:f0:f2:4d:57:33:ba:5a:ff:
                    ce:99:e3:6b:85:f5:ef:59:01:86:4c:ab:c7:51:16:
                    e6:19:9f:e2:c4:1b:47:db:cb:b4:f4:75:de:62:49:
                    70:ba:70:ac:36:38:a5:01:e6:9a:2a:bd:09:18:7f:
                    a1:31:f0:83:35:f2:f5:c4:d2:37:0b:80:2c:3c:bf:
                    45:7a:4d:63:0e:d6:ea:bf:9a:ed:4e:eb:1a:cf:48:
                    65:54:2a:0e:89:84:e5:36:2e:30:96:6c:42:ba:5d:
                    a3:a0:81:3a:fd:ed:c2:ae:75:b3:a5:51:2e:1f:a8:
                    a4:d4:68:d8:c3:a4:a8:bd:a6:b6:e4:f6:97:c0:7c:
                    c7:ee:74:90:52:e8:8a:3f:72:df:d6:06:51:5a:a4:
                    0e:6f:f6:4c:94:73:38:bf:59:86:be:3c:5a:79:5b:
                    1b:6e:c1:95:b5:a3:e9:5b:1d:70:67:48:97:4f:32:
                    a5:03:6f:32:02:ae:56:74:23:61:3d:bb:ef:d8:c4:
                    35:9a:61:66:14:6d:c9:88:5d:d1:d2:e5:40:cc:dd:
                    56:f7:bd:ac:2a:bc:c2:73:1e:78:04:ab:73:13:e9:
                    a0:b3
                Exponent: 65537 (0x10001)
        X509v3 extensions:
            X509v3 Subject Key Identifier: 
                51:6A:41:ED:03:C5:12:8E:72:74:7C:D9:DA:A5:07:07:44:CB:B7:C0
            X509v3 Authority Key Identifier: 
                keyid:51:6A:41:ED:03:C5:12:8E:72:74:7C:D9:DA:A5:07:07:44:CB:B7:C0

            X509v3 Basic Constraints: 
                CA:TRUE
    Signature Algorithm: sha256WithRSAEncryption
         b9:6d:f3:5d:e6:47:d1:3c:ff:3c:a9:c8:29:e3:6b:b7:5a:b1:
         29:c3:44:5d:ce:0e:8a:be:82:64:c5:c4:18:73:c2:48:20:f5:
         70:6f:15:2d:75:c4:2d:8e:0b:9d:66:5c:4a:75:51:b6:07:ee:
         51:62:0b:90:c1:0f:84:33:b1:8b:38:e6:53:dd:d5:71:15:94:
         af:6d:01:ec:ab:fc:c1:ea:a2:42:26:d6:fd:f2:1e:52:64:d4:
         bb:d5:57:cf:c8:3b:2c:5a:36:f2:d2:86:82:f1:c4:d5:c5:21:
         67:d7:12:c8:a0:1f:0c:5f:a6:0e:8e:63:c1:97:c1:11:23:d6:
         d9:e6:af:6c:8d:ab:b1:e0:04:8d:c9:3c:44:d0:7c:e8:00:d4:
         d9:36:50:08:21:2d:db:25:59:1d:76:a0:ed:01:44:17:ba:1a:
         a4:83:5d:c2:36:d3:40:61:18:8b:ad:50:8f:6e:5d:4c:fe:48:
         9c:16:57:9d:b9:96:8b:9b:08:a8:f2:d4:12:a7:52:41:4d:83:
         96:b8:6c:45:2a:4f:01:cc:af:08:86:9b:a6:8b:d0:39:c2:81:
         30:5f:ab:02:fe:3c:0d:a7:03:cf:32:31:8b:58:3d:db:83:10:
         4e:ca:62:0e:88:33:4e:36:2b:88:9b:70:6d:47:a6:8a:78:e1:
         7e:9e:ad:dd
-----BEGIN CERTIFICATE-----
MIIC/zCCAeegAwIBAgIJAJn+8/VgLm+LMA0GCSqGSIb3DQEBCwUAMBYxFDASBgNV
BAMMC0NBIHJpdG1hbTEzMB4XDTE4MDEyNjEwMjQwMFoXDTE5MDEyNjEwMjQwMFow
FjEUMBIGA1UEAwwLQ0Egcml0bWFtMTMwggEiMA0GCSqGSIb3DQEBAQUAA4IBDwAw
ggEKAoIBAQC9NtrLEdB16bPud1jI7RIFeBOJ7G7k4o3ROIWv4fQIeTkp1Qbw8k1X
M7pa/86Z42uF9e9ZAYZMq8dRFuYZn+LEG0fby7T0dd5iSXC6cKw2OKUB5poqvQkY
f6Ex8IM18vXE0jcLgCw8v0V6TWMO1uq/mu1O6xrPSGVUKg6JhOU2LjCWbEK6XaOg
gTr97cKudbOlUS4fqKTUaNjDpKi9prbk9pfAfMfudJBS6Io/ct/WBlFapA5v9kyU
czi/WYa+PFp5WxtuwZW1o+lbHXBnSJdPMqUDbzICrlZ0I2E9u+/YxDWaYWYUbcmI
XdHS5UDM3Vb3vawqvMJzHngEq3MT6aCzAgMBAAGjUDBOMB0GA1UdDgQWBBRRakHt
A8USjnJ0fNnapQcHRMu3wDAfBgNVHSMEGDAWgBRRakHtA8USjnJ0fNnapQcHRMu3
wDAMBgNVHRMEBTADAQH/MA0GCSqGSIb3DQEBCwUAA4IBAQC5bfNd5kfRPP88qcgp
42u3WrEpw0Rdzg6KvoJkxcQYc8JIIPVwbxUtdcQtjgudZlxKdVG2B+5RYguQwQ+E
M7GLOOZT3dVxFZSvbQHsq/zB6qJCJtb98h5SZNS71VfPyDssWjby0oaC8cTVxSFn
1xLIoB8MX6YOjmPBl8ERI9bZ5q9sjaux4ASNyTxE0HzoANTZNlAIIS3bJVkddqDt
AUQXuhqkg13CNtNAYRiLrVCPbl1M/kicFleduZaLmwio8tQSp1JBTYOWuGxFKk8B
zK8Ihpumi9A5woEwX6sC/jwNpwPPMjGLWD3bgxBOymIOiDNONiuIm3BtR6aKeOF+
nq3d
-----END CERTIFICATE-----
