Certificate:
    Data:
        Version: 3 (0x2)
        Serial Number: 10410784119344990243 (0x907a88ff72d60823)
    Signature Algorithm: sha256WithRSAEncryption
        Issuer: CN=CA kager
        Validity
            Not Before: Jan 26 10:24:00 2018 GMT
            Not After : Jan 26 10:24:00 2019 GMT
        Subject: CN=CA kager
        Subject Public Key Info:
            Public Key Algorithm: rsaEncryption
                Public-Key: (2048 bit)
                Modulus:
                    00:d0:26:24:d8:b1:3f:90:86:91:88:d6:71:2f:4d:
                    1f:47:2a:f9:22:f6:ce:47:33:e0:c2:6a:86:a1:62:
                    b8:e1:47:0d:73:05:0e:6d:54:08:84:12:b4:92:32:
                    a7:d8:42:bb:8e:72:bc:f3:1d:de:3b:58:e5:c6:f0:
                    5d:ec:29:ce:02:a2:c4:33:56:fc:32:9a:3c:14:66:
                    2b:2b:1a:83:f6:cd:1b:6b:ac:ad:7e:09:e9:cd:d0:
                    66:ec:e9:42:23:84:f8:04:67:fc:73:43:ff:e2:ff:
                    69:e0:a0:93:c7:23:41:2b:b3:2f:00:5e:78:5e:f5:
                    95:a5:fb:2a:28:ac:db:75:6e:b8:26:6a:3a:61:78:
                    df:07:86:3a:eb:16:7a:2a:87:bc:b1:25:7d:52:c0:
                    0a:6c:d7:3f:c6:3e:18:28:2d:a3:bc:c8:8e:11:75:
                    e1:44:17:4f:68:a3:45:aa:a9:cd:5a:90:8a:2e:6b:
                    49:63:12:46:e6:f0:c8:ed:63:fe:36:12:56:e2:9f:
                    4e:b2:de:5e:c3:f2:47:f7:a4:f6:81:f8:27:06:81:
                    5e:03:f5:0d:af:e6:2b:8d:41:71:24:cc:da:cd:96:
                    cb:52:9c:da:f3:e7:c3:fb:c5:c8:53:49:6b:81:e8:
                    4c:df:fa:08:db:b3:cd:09:13:a6:6e:1a:81:ac:a0:
                    c8:bd
                Exponent: 65537 (0x10001)
        X509v3 extensions:
            X509v3 Subject Key Identifier: 
                64:7C:48:AA:19:EB:3F:ED:B5:8C:86:5A:44:E7:22:72:C7:84:BA:16
            X509v3 Authority Key Identifier: 
                keyid:64:7C:48:AA:19:EB:3F:ED:B5:8C:86:5A:44:E7:22:72:C7:84:BA:16

            X509v3 Basic Constraints: 
                CA:TRUE
    Signature Algorithm: sha256WithRSAEncryption
         6d:ef:ba:bf:97:a1:f2:fd:02:53:b6:45:08:9e:75:b0:87:1c:
         30:ac:2f:29:ba:31:5d:58:48:8a:bd:e2:5a:7b:79:59:5f:7f:
         ec:10:cf:8a:2a:e7:a9:c5:67:ee:6b:12:b9:59:b6:03:38:9d:
         e6:51:9a:1b:17:9e:17:96:bf:c7:76:b6:ce:33:30:c4:28:f1:
         9e:af:46:2a:d7:86:31:30:36:f6:c7:38:15:81:0f:33:82:de:
         6c:53:95:fd:c5:fa:ae:03:5b:c3:d5:8b:31:ac:83:04:94:84:
         99:d5:60:c1:c3:64:83:56:1a:d9:5f:73:a2:91:75:91:97:a7:
         88:31:df:4d:e2:ef:34:1c:eb:d2:54:e8:0f:ea:72:78:b0:02:
         65:06:23:00:83:d0:27:d9:f3:6c:73:41:9f:14:18:42:1d:63:
         c0:0a:2c:b6:7c:d0:4b:34:9a:87:73:e3:8f:bf:0c:28:60:8d:
         20:61:ac:f6:f3:b0:97:47:a0:2c:54:0d:cb:a3:f9:a0:43:3d:
         68:f6:9f:88:de:be:95:51:93:c3:5e:e9:b5:8e:16:20:4f:47:
         47:08:8a:0c:ae:d2:14:4d:94:a8:74:ff:10:f7:80:72:9c:02:
         6f:11:31:d7:35:41:9c:87:24:1a:e4:a3:9a:88:49:bc:f3:53:
         17:33:54:8a
-----BEGIN CERTIFICATE-----
MIIC+TCCAeGgAwIBAgIJAJB6iP9y1ggjMA0GCSqGSIb3DQEBCwUAMBMxETAPBgNV
BAMMCENBIGthZ2VyMB4XDTE4MDEyNjEwMjQwMFoXDTE5MDEyNjEwMjQwMFowEzER
MA8GA1UEAwwIQ0Ega2FnZXIwggEiMA0GCSqGSIb3DQEBAQUAA4IBDwAwggEKAoIB
AQDQJiTYsT+QhpGI1nEvTR9HKvki9s5HM+DCaoahYrjhRw1zBQ5tVAiEErSSMqfY
QruOcrzzHd47WOXG8F3sKc4CosQzVvwymjwUZisrGoP2zRtrrK1+CenN0Gbs6UIj
hPgEZ/xzQ//i/2ngoJPHI0Ersy8AXnhe9ZWl+yoorNt1brgmajpheN8HhjrrFnoq
h7yxJX1SwAps1z/GPhgoLaO8yI4RdeFEF09oo0Wqqc1akIoua0ljEkbm8MjtY/42
Elbin06y3l7D8kf3pPaB+CcGgV4D9Q2v5iuNQXEkzNrNlstSnNrz58P7xchTSWuB
6Ezf+gjbs80JE6ZuGoGsoMi9AgMBAAGjUDBOMB0GA1UdDgQWBBRkfEiqGes/7bWM
hlpE5yJyx4S6FjAfBgNVHSMEGDAWgBRkfEiqGes/7bWMhlpE5yJyx4S6FjAMBgNV
HRMEBTADAQH/MA0GCSqGSIb3DQEBCwUAA4IBAQBt77q/l6Hy/QJTtkUInnWwhxww
rC8pujFdWEiKveJae3lZX3/sEM+KKuepxWfuaxK5WbYDOJ3mUZobF54Xlr/HdrbO
MzDEKPGer0Yq14YxMDb2xzgVgQ8zgt5sU5X9xfquA1vD1YsxrIMElISZ1WDBw2SD
VhrZX3OikXWRl6eIMd9N4u80HOvSVOgP6nJ4sAJlBiMAg9An2fNsc0GfFBhCHWPA
Ciy2fNBLNJqHc+OPvwwoYI0gYaz287CXR6AsVA3Lo/mgQz1o9p+I3r6VUZPDXum1
jhYgT0dHCIoMrtIUTZSodP8Q94BynAJvETHXNUGchyQa5KOaiEm881MXM1SK
-----END CERTIFICATE-----
