Certificate:
    Data:
        Version: 3 (0x2)
        Serial Number: 12110755185182919932 (0xa8120bace68c4cfc)
    Signature Algorithm: sha256WithRSAEncryption
        Issuer: CN=CA harflm13
        Validity
            Not Before: Jan 26 10:37:53 2018 GMT
            Not After : Jan 26 10:37:53 2019 GMT
        Subject: CN=server-harflm13
        Subject Public Key Info:
            Public Key Algorithm: rsaEncryption
                Public-Key: (2048 bit)
                Modulus:
                    00:f2:34:7c:fa:8f:94:b9:6c:55:1c:d6:37:75:40:
                    28:6d:65:ae:fe:a9:be:c0:09:e9:c6:a3:c7:11:aa:
                    48:40:b3:6b:24:68:c3:a7:59:2a:a2:f2:9a:a0:90:
                    0c:39:24:70:61:a7:6d:a9:77:b8:53:e7:a5:ad:af:
                    9b:d8:86:9c:8e:3c:82:b9:bc:08:1f:52:95:1f:28:
                    82:fe:4b:d5:7a:84:47:d9:6f:e7:b8:dd:ac:64:9b:
                    8d:36:42:bc:1b:9d:82:cb:11:91:d0:8b:7d:ff:9b:
                    56:01:d9:b6:93:9e:b8:cd:48:fe:23:77:77:be:f7:
                    34:23:f2:5f:01:e6:02:c4:f4:45:80:bd:5d:6f:1b:
                    d4:21:fa:62:20:4a:86:df:92:24:0c:ce:f6:2a:96:
                    95:46:17:78:c9:f6:83:0a:72:bd:6d:d2:28:88:4e:
                    2a:25:7a:5f:3d:8d:14:aa:d9:f0:db:ae:64:31:e1:
                    0e:b5:ef:18:e3:b1:1e:72:f3:da:8c:23:91:71:23:
                    92:82:3f:99:e8:1a:9f:93:66:b2:f8:f9:e5:49:ca:
                    c9:e7:a3:06:8b:d4:2f:fb:66:70:ed:98:03:7b:93:
                    90:ba:0f:9b:a6:ed:03:33:43:df:9a:38:da:22:9d:
                    3b:96:6c:d3:55:09:76:74:5c:df:27:20:f1:4e:ad:
                    a2:f1
                Exponent: 65537 (0x10001)
        X509v3 extensions:
            X509v3 Basic Constraints: 
                CA:FALSE
            Netscape Comment: 
                OpenSSL Generated Certificate
            X509v3 Subject Key Identifier: 
                4B:9A:E4:F6:D4:C6:C7:FB:4A:EA:6C:66:61:83:79:1D:D6:DF:C6:E1
            X509v3 Authority Key Identifier: 
                keyid:06:E8:0D:67:91:E9:6E:56:06:98:73:20:13:89:A1:34:4B:98:83:5F

    Signature Algorithm: sha256WithRSAEncryption
         40:31:5e:61:d2:0f:e0:35:99:04:2f:4d:4b:11:07:60:ed:cc:
         b8:b5:c9:ed:19:fc:ea:f1:32:27:58:06:9f:7d:49:10:5d:d5:
         2a:5a:d3:f3:e5:98:d6:07:91:0b:4f:7c:b8:bc:bb:6c:1f:7c:
         b6:50:a1:21:f3:5f:12:71:96:46:28:25:82:ec:20:75:59:00:
         ed:d9:bc:99:50:65:98:97:6e:a7:e7:14:5b:42:8e:db:8a:3f:
         7d:2e:a2:13:5c:ef:70:b9:8b:a9:06:b5:44:6d:79:0a:88:3d:
         bf:74:23:f0:98:93:cc:eb:35:b7:4a:7e:41:bd:eb:5f:73:1b:
         f3:68:03:10:c9:ca:2c:3c:4d:30:37:73:62:f7:60:7d:3a:e0:
         cc:63:4e:7f:19:fa:3f:d2:fe:f5:c8:fe:89:34:4d:04:5b:a5:
         ee:a5:e0:28:a2:24:89:92:e1:d3:99:ac:a1:aa:ef:ea:a4:64:
         b5:6f:ad:c8:4f:74:18:c7:db:cf:0a:6d:c8:42:19:08:cf:eb:
         ba:10:7e:a3:04:e4:e1:ab:93:56:38:f9:28:ac:67:8b:49:65:
         2f:b4:b1:a9:53:8b:37:8a:de:18:b4:b9:4e:99:d5:5d:6d:f7:
         e9:02:9d:ac:0c:3f:09:83:82:3d:2b:5f:64:59:d4:5b:37:56:
         f2:f3:e3:e5
-----BEGIN CERTIFICATE-----
MIIDLjCCAhagAwIBAgIJAKgSC6zmjEz8MA0GCSqGSIb3DQEBCwUAMBYxFDASBgNV
BAMMC0NBIGhhcmZsbTEzMB4XDTE4MDEyNjEwMzc1M1oXDTE5MDEyNjEwMzc1M1ow
GjEYMBYGA1UEAwwPc2VydmVyLWhhcmZsbTEzMIIBIjANBgkqhkiG9w0BAQEFAAOC
AQ8AMIIBCgKCAQEA8jR8+o+UuWxVHNY3dUAobWWu/qm+wAnpxqPHEapIQLNrJGjD
p1kqovKaoJAMOSRwYadtqXe4U+elra+b2IacjjyCubwIH1KVHyiC/kvVeoRH2W/n
uN2sZJuNNkK8G52CyxGR0It9/5tWAdm2k564zUj+I3d3vvc0I/JfAeYCxPRFgL1d
bxvUIfpiIEqG35IkDM72KpaVRhd4yfaDCnK9bdIoiE4qJXpfPY0Uqtnw265kMeEO
te8Y47EecvPajCORcSOSgj+Z6Bqfk2ay+PnlScrJ56MGi9Qv+2Zw7ZgDe5OQug+b
pu0DM0PfmjjaIp07lmzTVQl2dFzfJyDxTq2i8QIDAQABo3sweTAJBgNVHRMEAjAA
MCwGCWCGSAGG+EIBDQQfFh1PcGVuU1NMIEdlbmVyYXRlZCBDZXJ0aWZpY2F0ZTAd
BgNVHQ4EFgQUS5rk9tTGx/tK6mxmYYN5HdbfxuEwHwYDVR0jBBgwFoAUBugNZ5Hp
blYGmHMgE4mhNEuYg18wDQYJKoZIhvcNAQELBQADggEBAEAxXmHSD+A1mQQvTUsR
B2DtzLi1ye0Z/OrxMidYBp99SRBd1Spa0/PlmNYHkQtPfLi8u2wffLZQoSHzXxJx
lkYoJYLsIHVZAO3ZvJlQZZiXbqfnFFtCjtuKP30uohNc73C5i6kGtURteQqIPb90
I/CYk8zrNbdKfkG9619zG/NoAxDJyiw8TTA3c2L3YH064MxjTn8Z+j/S/vXI/ok0
TQRbpe6l4CiiJImS4dOZrKGq7+qkZLVvrchPdBjH288KbchCGQjP67oQfqME5OGr
k1Y4+SisZ4tJZS+0salTizeK3hi0uU6Z1V1t9+kCnawMPwmDgj0rX2RZ1Fs3VvLz
4+U=
-----END CERTIFICATE-----
