Certificate:
    Data:
        Version: 3 (0x2)
        Serial Number: 10146446511344746759 (0x8ccf6b5809348107)
    Signature Algorithm: sha256WithRSAEncryption
        Issuer: CN=CA frelum13
        Validity
            Not Before: Jan 26 10:37:48 2018 GMT
            Not After : Jan 26 10:37:48 2019 GMT
        Subject: CN=Server-Frelum13
        Subject Public Key Info:
            Public Key Algorithm: rsaEncryption
                Public-Key: (2048 bit)
                Modulus:
                    00:d8:8c:1b:32:e5:41:29:20:e5:80:00:98:5e:ec:
                    be:0c:bf:43:33:c2:2e:be:19:e8:24:e7:c1:e7:27:
                    da:82:3b:39:9b:61:85:6c:e1:18:e7:3e:98:e3:d9:
                    de:ea:53:d5:ae:9b:86:2c:51:38:e5:41:5d:41:b5:
                    b8:2f:a1:73:6d:70:dc:97:14:12:10:97:d7:05:cf:
                    2d:ba:f7:6e:27:4a:32:b9:e3:a9:89:9c:a8:d0:63:
                    24:f2:24:4f:b3:a5:fb:f7:f3:b0:92:03:d8:22:b3:
                    fa:df:11:43:6e:44:62:8a:ba:e1:30:f3:9c:27:0c:
                    4a:20:72:80:7b:ce:24:c2:47:be:0d:6b:7f:31:65:
                    a4:f7:69:36:1f:7a:b7:06:d5:5b:e1:f2:30:69:23:
                    7f:f0:d6:e0:87:8d:93:63:44:19:79:2b:b4:11:3d:
                    ed:ad:27:7a:00:0c:ec:e9:49:ac:0f:2e:89:a1:4c:
                    3f:44:08:71:3a:1a:aa:b7:f7:10:88:33:fd:1a:92:
                    1f:c0:ec:4e:52:75:76:be:74:73:0b:6f:69:5a:72:
                    da:39:38:26:a9:81:dc:e8:58:1f:54:50:e7:67:31:
                    48:6e:c1:a5:a4:11:d1:ae:10:10:3d:56:57:9d:b1:
                    79:56:58:24:b6:45:28:c5:0b:98:0b:93:84:a7:8f:
                    8c:3d
                Exponent: 65537 (0x10001)
        X509v3 extensions:
            X509v3 Basic Constraints: 
                CA:FALSE
            Netscape Comment: 
                OpenSSL Generated Certificate
            X509v3 Subject Key Identifier: 
                B0:06:7D:3E:A0:5D:B8:D4:43:16:8D:FB:4A:98:3C:1D:64:2A:81:79
            X509v3 Authority Key Identifier: 
                keyid:3F:D3:1C:76:DD:E1:3E:76:31:9B:3F:3E:5F:B9:28:79:CC:68:CA:F7

    Signature Algorithm: sha256WithRSAEncryption
         19:b6:4f:8d:3d:f2:f5:0b:7a:a5:4d:8c:95:d3:38:77:09:2e:
         ce:3e:95:98:84:4f:ac:92:e3:5d:6c:89:b2:39:72:d5:15:ce:
         8a:6c:64:e8:00:e6:ab:c1:eb:ac:a8:94:17:d1:a8:2e:58:76:
         49:1e:2e:77:3f:fd:83:1b:b2:71:2c:6f:5e:96:9d:d2:75:5b:
         7e:0a:df:c0:a6:18:89:fd:37:d8:22:0e:d2:17:7e:7e:6f:54:
         6f:98:1a:6a:0e:0f:02:fb:a1:5c:f4:57:11:c4:a4:a2:30:95:
         5f:b0:3d:8f:dc:fc:70:d1:91:a1:c5:1d:8d:32:51:8e:cf:ac:
         18:67:9c:42:fa:33:bf:43:53:82:d7:cd:35:29:cf:5d:5d:2d:
         da:28:93:e5:fc:e5:7a:02:84:9b:14:22:02:0c:fb:fd:65:de:
         f2:bd:2a:c7:a5:ae:0d:e7:31:3a:27:cc:95:1a:e3:4d:75:73:
         a1:1c:98:b0:a3:ad:b4:f6:18:8d:bb:21:71:b0:e8:99:6b:67:
         c8:fb:65:f4:6d:70:e5:ab:f5:f5:d9:4b:89:20:08:ef:ec:a0:
         8f:28:4a:a8:13:f9:bc:50:43:6a:fd:cc:d8:44:89:ab:a8:1a:
         e2:65:cb:37:35:d4:a3:1b:a5:07:fe:32:e2:82:91:a6:98:1b:
         4b:23:47:6e
-----BEGIN CERTIFICATE-----
MIIDLjCCAhagAwIBAgIJAIzPa1gJNIEHMA0GCSqGSIb3DQEBCwUAMBYxFDASBgNV
BAMMC0NBIGZyZWx1bTEzMB4XDTE4MDEyNjEwMzc0OFoXDTE5MDEyNjEwMzc0OFow
GjEYMBYGA1UEAwwPU2VydmVyLUZyZWx1bTEzMIIBIjANBgkqhkiG9w0BAQEFAAOC
AQ8AMIIBCgKCAQEA2IwbMuVBKSDlgACYXuy+DL9DM8IuvhnoJOfB5yfagjs5m2GF
bOEY5z6Y49ne6lPVrpuGLFE45UFdQbW4L6FzbXDclxQSEJfXBc8tuvduJ0oyueOp
iZyo0GMk8iRPs6X79/OwkgPYIrP63xFDbkRiirrhMPOcJwxKIHKAe84kwke+DWt/
MWWk92k2H3q3BtVb4fIwaSN/8Nbgh42TY0QZeSu0ET3trSd6AAzs6UmsDy6JoUw/
RAhxOhqqt/cQiDP9GpIfwOxOUnV2vnRzC29pWnLaOTgmqYHc6FgfVFDnZzFIbsGl
pBHRrhAQPVZXnbF5VlgktkUoxQuYC5OEp4+MPQIDAQABo3sweTAJBgNVHRMEAjAA
MCwGCWCGSAGG+EIBDQQfFh1PcGVuU1NMIEdlbmVyYXRlZCBDZXJ0aWZpY2F0ZTAd
BgNVHQ4EFgQUsAZ9PqBduNRDFo37Spg8HWQqgXkwHwYDVR0jBBgwFoAUP9Mcdt3h
PnYxmz8+X7koecxoyvcwDQYJKoZIhvcNAQELBQADggEBABm2T4098vULeqVNjJXT
OHcJLs4+lZiET6yS411sibI5ctUVzopsZOgA5qvB66yolBfRqC5YdkkeLnc//YMb
snEsb16WndJ1W34K38CmGIn9N9giDtIXfn5vVG+YGmoODwL7oVz0VxHEpKIwlV+w
PY/c/HDRkaHFHY0yUY7PrBhnnEL6M79DU4LXzTUpz11dLdook+X85XoChJsUIgIM
+/1l3vK9Kselrg3nMTonzJUa4011c6EcmLCjrbT2GI27IXGw6JlrZ8j7ZfRtcOWr
9fXZS4kgCO/soI8oSqgT+bxQQ2r9zNhEiauoGuJlyzc11KMbpQf+MuKCkaaYG0sj
R24=
-----END CERTIFICATE-----
